Certificate:
    Data:
        Version: 3 (0x2)
        Serial Number: 4096 (0x1000)
    Signature Algorithm: sha256WithRSAEncryption
        Issuer: C=FR, ST=IDF, L=Paris, O=Fake CA for Test, CN=NodeOPCUA
        Validity
            Not Before: Apr 30 16:29:27 2016 GMT
            Not After : Apr 30 16:29:27 2017 GMT
        Subject: O=NodeOPCUA, CN=NodeOPCUA
        Subject Public Key Info:
            Public Key Algorithm: rsaEncryption
                Public-Key: (1024 bit)
                Modulus:
                    00:cf:aa:74:97:69:7e:08:f0:0f:ee:6c:85:95:4c:
                    5e:7c:6c:ca:53:73:f3:4f:6e:39:b4:d3:1f:e2:90:
                    96:12:f6:c2:a5:e4:df:89:88:be:73:5e:72:66:86:
                    1a:fb:5a:23:c2:63:56:67:b7:ee:93:5a:53:18:42:
                    08:68:b9:88:67:94:e4:bd:a6:e4:fa:a8:6e:3a:44:
                    8e:f8:b2:78:59:89:1e:3a:62:50:50:ae:40:d9:73:
                    10:0e:89:93:b4:36:d1:c3:e8:34:22:66:6b:42:8a:
                    8e:3f:0b:e8:2c:a7:8a:38:bc:e4:ab:fa:8d:b0:c8:
                    08:52:1e:5d:f1:6a:49:9a:ad
                Exponent: 65537 (0x10001)
        X509v3 extensions:
            X509v3 Basic Constraints: critical
                CA:FALSE
            X509v3 Subject Key Identifier: 
                B9:5F:8B:B8:AA:0F:74:A8:DE:D3:30:C6:0F:99:DA:5B:38:6B:2E:7E
            X509v3 Authority Key Identifier: 
                keyid:B2:C7:5C:1B:ED:CC:74:25:36:DB:3E:E6:CD:72:5B:1E:58:69:8E:E7
                DirName:/C=FR/ST=IDF/L=Paris/O=Fake CA for Test/CN=NodeOPCUA
                serial:EE:B8:18:2F:F3:D5:3C:97

            X509v3 Subject Alternative Name: 
                URI:urn:UbuntuDesk:NodeOPCUA-Client, DNS:localhost, DNS:UbuntuDesk
            Netscape Comment: 
                OpenSSL Generated Certificate
            X509v3 Key Usage: critical
                Digital Signature, Non Repudiation, Key Encipherment, Data Encipherment, Key Agreement, Certificate Sign
            X509v3 Extended Key Usage: critical
                TLS Web Server Authentication, TLS Web Client Authentication
    Signature Algorithm: sha256WithRSAEncryption
         3f:57:fc:69:5b:f0:32:87:be:58:b6:c8:39:66:e9:e1:51:30:
         32:79:fb:10:5e:2e:74:c5:fb:d5:08:82:a6:81:3c:9d:c2:9f:
         ee:0b:3b:38:2c:f2:1a:81:6b:e7:48:75:e2:c7:8f:b4:f0:4b:
         f4:6b:ff:e1:9e:f2:28:d2:1c:d8:c0:4b:97:e6:dd:29:ae:6d:
         35:db:bb:b9:85:37:f2:70:c3:17:17:f2:8f:f9:10:5e:1c:cc:
         5f:d1:82:8a:89:a9:3f:10:d3:00:f6:1a:29:c6:5d:70:0f:c3:
         c2:fa:15:c3:54:ea:91:d9:0b:af:6c:2e:37:cc:02:60:cc:f3:
         f9:2c:80:8d:7b:f8:3c:01:9d:5b:4d:66:7e:56:31:52:4d:6e:
         ee:8c:ec:84:a6:2f:b8:c5:33:67:e7:89:27:78:2b:1e:54:f9:
         1a:9d:73:24:6d:04:b4:d7:51:24:75:c4:b6:87:95:f5:04:64:
         2e:83:3a:25:af:71:a7:1a:1b:42:38:40:ee:18:e4:96:5f:54:
         41:03:47:e2:3b:22:9b:5b:35:c5:bd:42:3d:18:30:ff:ae:47:
         9f:44:bf:6b:8d:48:1f:dc:66:6a:07:7b:28:d0:0c:fe:2d:60:
         49:50:45:d9:ed:cc:0f:3e:3f:b6:a9:a4:46:4d:cc:e2:31:02:
         a0:76:98:ee
-----BEGIN CERTIFICATE-----
MIID3zCCAsegAwIBAgICEAAwDQYJKoZIhvcNAQELBQAwWjELMAkGA1UEBhMCRlIx
DDAKBgNVBAgTA0lERjEOMAwGA1UEBxMFUGFyaXMxGTAXBgNVBAoTEEZha2UgQ0Eg
Zm9yIFRlc3QxEjAQBgNVBAMTCU5vZGVPUENVQTAeFw0xNjA0MzAxNjI5MjdaFw0x
NzA0MzAxNjI5MjdaMCgxEjAQBgNVBAoTCU5vZGVPUENVQTESMBAGA1UEAxMJTm9k
ZU9QQ1VBMIGfMA0GCSqGSIb3DQEBAQUAA4GNADCBiQKBgQDPqnSXaX4I8A/ubIWV
TF58bMpTc/NPbjm00x/ikJYS9sKl5N+JiL5zXnJmhhr7WiPCY1Znt+6TWlMYQgho
uYhnlOS9puT6qG46RI74snhZiR46YlBQrkDZcxAOiZO0NtHD6DQiZmtCio4/C+gs
p4o4vOSr+o2wyAhSHl3xakmarQIDAQABo4IBYzCCAV8wDAYDVR0TAQH/BAIwADAd
BgNVHQ4EFgQUuV+LuKoPdKje0zDGD5naWzhrLn4wgYwGA1UdIwSBhDCBgYAUssdc
G+3MdCU22z7mzXJbHlhpjuehXqRcMFoxCzAJBgNVBAYTAkZSMQwwCgYDVQQIEwNJ
REYxDjAMBgNVBAcTBVBhcmlzMRkwFwYDVQQKExBGYWtlIENBIGZvciBUZXN0MRIw
EAYDVQQDEwlOb2RlT1BDVUGCCQDuuBgv89U8lzBBBgNVHREEOjA4hh91cm46VWJ1
bnR1RGVzazpOb2RlT1BDVUEtQ2xpZW50gglsb2NhbGhvc3SCClVidW50dURlc2sw
LAYJYIZIAYb4QgENBB8WHU9wZW5TU0wgR2VuZXJhdGVkIENlcnRpZmljYXRlMA4G
A1UdDwEB/wQEAwIC/DAgBgNVHSUBAf8EFjAUBggrBgEFBQcDAQYIKwYBBQUHAwIw
DQYJKoZIhvcNAQELBQADggEBAD9X/Glb8DKHvli2yDlm6eFRMDJ5+xBeLnTF+9UI
gqaBPJ3Cn+4LOzgs8hqBa+dIdeLHj7TwS/Rr/+Ge8ijSHNjAS5fm3SmubTXbu7mF
N/JwwxcX8o/5EF4czF/RgoqJqT8Q0wD2GinGXXAPw8L6FcNU6pHZC69sLjfMAmDM
8/ksgI17+DwBnVtNZn5WMVJNbu6M7ISmL7jFM2fniSd4Kx5U+RqdcyRtBLTXUSR1
xLaHlfUEZC6DOiWvcacaG0I4QO4Y5JZfVEEDR+I7IptbNcW9Qj0YMP+uR59Ev2uN
SB/cZmoHeyjQDP4tYElQRdntzA8+P7appEZNzOIxAqB2mO4=
-----END CERTIFICATE-----
-----BEGIN CERTIFICATE-----
MIIEkjCCA3qgAwIBAgIJAO64GC/z1TyXMA0GCSqGSIb3DQEBCwUAMFoxCzAJBgNV
BAYTAkZSMQwwCgYDVQQIEwNJREYxDjAMBgNVBAcTBVBhcmlzMRkwFwYDVQQKExBG
YWtlIENBIGZvciBUZXN0MRIwEAYDVQQDEwlOb2RlT1BDVUEwHhcNMTYwNTAxMTYy
OTI3WhcNMjYwNDI5MTYyOTI3WjBaMQswCQYDVQQGEwJGUjEMMAoGA1UECBMDSURG
MQ4wDAYDVQQHEwVQYXJpczEZMBcGA1UEChMQRmFrZSBDQSBmb3IgVGVzdDESMBAG
A1UEAxMJTm9kZU9QQ1VBMIIBIjANBgkqhkiG9w0BAQEFAAOCAQ8AMIIBCgKCAQEA
vyRfEchU06PycTUGHOdekWD5LpcebsHX7EJoamZbpeUPvX7l03+RDCajFgglaf/C
drm/hCrSO6SCK6gbvYuDn53bQjnTM+EPWd6JlpP+rvrLB48WZ8b1SYsJLgt5OPvU
cFvPIGDj6/BS93phZM4ECERgvLeRDEnbnZ9qYC+gs97lghRDV63dz/GgfoD7w1og
By6mVV6IV+eXpgfGg2dkMF4+bV8mbd5S58in0QZpGBdi3o7erajEhhOuaS2QS4zp
uz8ZcgxpxZGJ0WLGwr/+h2+O4yKvgrBMoKqlwenxnY+IL7L1B3sHj6+4hy+GgQdI
TwUnIvx29Ega0dcisduo9QIDAQABo4IBWTCCAVUwHQYDVR0OBBYEFLLHXBvtzHQl
Nts+5s1yWx5YaY7nMIGMBgNVHSMEgYQwgYGAFLLHXBvtzHQlNts+5s1yWx5YaY7n
oV6kXDBaMQswCQYDVQQGEwJGUjEMMAoGA1UECBMDSURGMQ4wDAYDVQQHEwVQYXJp
czEZMBcGA1UEChMQRmFrZSBDQSBmb3IgVGVzdDESMBAGA1UEAxMJTm9kZU9QQ1VB
ggkA7rgYL/PVPJcwDAYDVR0TBAUwAwEB/zAOBgNVHQ8BAf8EBAMCAQYwVwYJYIZI
AYb4QgENBEoWSENBIENlcnRpZmljYXRlIGdlbmVyYXRlZCBieSBOb2RlLU9QQ1VB
IENlcnRpZmljYXRlIHV0aWxpdHkgdXNpbmcgb3BlbnNzbDAuBgNVHR8EJzAlMCOg
IaAfhh1odHRwOi8vbG9jYWxob3N0Ojg5MDAvY3JsLnBlbTANBgkqhkiG9w0BAQsF
AAOCAQEAXXmRK/TlWT9hPC09LGe3C3wXuJYbSuEEX2aF8Ml96o3S3qUqdry81xZr
wPKUjU104vr27NHPg0Ff/nmVrt+G8i6TUhcOMwdkNvdmcvjfeagf9Oy0WdXpYLe3
gKMo3EMqCMUfbUDMM0yGx+WLpHp4BWuO6/iufD3bSyRZRQYb3BIk6JItdZ+k2CaN
u12UedUkPUN3IaNMq9eGmB+J7GrzKm8OrHgOELxoq+JEoZ/kH/vka0T+vpPyeicf
TD8Qx600ZpdEkSbIqahoO8lKZB/xbamfALQ8FLdCjYfgFQE6s8I7dFr9WR/8NbXX
OqM1kOz4UnTXyQ3DnzTmkStXdxGLfQ==
-----END CERTIFICATE-----
