Certificate:
    Data:
        Version: 3 (0x2)
        Serial Number: 4099 (0x1003)
    Signature Algorithm: sha256WithRSAEncryption
        Issuer: O=NodeOPCUA, CN=NodeOPCUA
        Validity
            Not Before: Apr 30 16:29:27 2016 GMT
            Not After : Apr 30 16:29:27 2017 GMT
        Subject: O=NodeOPCUA, CN=NodeOPCUA
        Subject Public Key Info:
            Public Key Algorithm: rsaEncryption
                Public-Key: (2048 bit)
                Modulus:
                    00:e5:53:6b:21:0d:fc:3b:41:62:7a:4c:fd:de:5e:
                    93:9e:db:4c:4a:c8:e4:86:a3:55:9a:3f:f1:a0:00:
                    a1:83:32:df:fa:e9:33:b8:2b:ac:bb:1f:90:38:ec:
                    ad:95:31:bd:2b:17:59:20:fd:0c:4f:fe:45:60:6d:
                    31:11:83:95:c4:77:07:e7:ca:54:4b:a9:5d:55:75:
                    14:25:06:b5:84:c4:5b:c6:31:0f:39:76:09:14:01:
                    03:37:11:17:71:7e:52:f2:3a:63:b1:26:e9:75:a1:
                    84:c9:b3:20:6e:8f:d8:90:62:30:c8:31:28:11:23:
                    d2:cf:98:a5:21:8f:b8:16:d9:b1:67:26:b5:49:72:
                    99:cf:43:c1:2b:2c:6f:95:5a:0d:32:00:3f:c0:e2:
                    d0:77:9e:ca:c5:12:35:4d:9b:9a:16:18:07:9c:0c:
                    02:89:12:37:59:10:01:9b:e6:2a:ae:67:2a:4f:36:
                    62:5f:26:97:04:73:52:b7:e3:36:fd:bf:7f:59:6e:
                    b9:d0:0e:f5:df:52:a2:bf:f9:ba:73:26:4f:6d:f3:
                    b2:6c:12:52:9f:68:5e:1b:23:1a:00:88:45:74:4f:
                    fa:f1:f8:1b:8c:37:7d:87:d7:0e:04:21:23:08:ad:
                    ec:f1:d1:74:14:e1:ea:41:e3:31:ff:00:30:f1:9a:
                    d9:bd
                Exponent: 65537 (0x10001)
        X509v3 extensions:
            X509v3 Basic Constraints: critical
                CA:FALSE
            X509v3 Subject Key Identifier: 
                B0:75:A7:4D:44:56:E5:69:34:1C:B6:69:4E:AF:DD:B3:2A:26:49:E5
            X509v3 Authority Key Identifier: 
                keyid:B0:75:A7:4D:44:56:E5:69:34:1C:B6:69:4E:AF:DD:B3:2A:26:49:E5
                DirName:/O=NodeOPCUA/CN=NodeOPCUA
                serial:10:03

            X509v3 Subject Alternative Name: 
                URI:urn:UbuntuDesk:NodeOPCUA-Client, DNS:localhost, DNS:UbuntuDesk
            Netscape Comment: 
                OpenSSL Generated Certificate
            X509v3 Key Usage: critical
                Digital Signature, Non Repudiation, Key Encipherment, Data Encipherment, Key Agreement, Certificate Sign
            X509v3 Extended Key Usage: critical
                TLS Web Server Authentication, TLS Web Client Authentication
    Signature Algorithm: sha256WithRSAEncryption
         72:07:3d:9c:9b:c8:dd:70:ba:a2:94:be:b8:9d:35:a0:22:54:
         27:e5:fb:d1:4f:86:ee:d7:ce:17:97:00:fa:13:d4:01:c9:7a:
         83:6b:68:6d:79:b9:ed:38:5e:84:44:af:fb:5a:76:e0:c2:b5:
         e3:6b:b8:2b:39:47:6f:4e:4c:a8:36:5f:7f:da:97:1f:05:06:
         ce:ea:2e:a0:81:fa:26:f6:2d:f2:55:8e:f1:0f:9d:27:35:c6:
         13:f9:be:51:bc:97:57:a8:3f:28:86:d2:3b:9e:84:79:a2:79:
         d1:c3:dc:79:64:be:7f:20:1a:85:db:69:3c:63:6e:69:32:60:
         60:5b:d6:de:71:aa:50:2c:ff:9f:41:6e:fc:d9:08:15:67:93:
         5f:c1:74:45:d1:f3:71:9a:32:54:19:2c:6a:31:de:4b:23:3d:
         25:5e:a2:b1:9d:7a:e9:4c:23:8b:95:5e:c1:ed:3e:cc:7d:d0:
         21:54:d4:10:da:5b:79:ce:9d:a2:1b:b9:a3:07:ef:e9:88:e6:
         33:9e:f4:9c:ee:ba:cd:45:1f:e9:35:11:2b:68:28:84:ce:5e:
         11:4b:46:01:f6:d9:f7:94:70:f8:06:84:22:69:47:56:e8:10:
         1e:b5:b9:92:b1:82:41:ba:7e:6a:64:93:b6:e6:5c:f1:61:25:
         28:5a:ee:69
-----BEGIN CERTIFICATE-----
MIID9TCCAt2gAwIBAgICEAMwDQYJKoZIhvcNAQELBQAwKDESMBAGA1UEChMJTm9k
ZU9QQ1VBMRIwEAYDVQQDEwlOb2RlT1BDVUEwHhcNMTYwNDMwMTYyOTI3WhcNMTcw
NDMwMTYyOTI3WjAoMRIwEAYDVQQKEwlOb2RlT1BDVUExEjAQBgNVBAMTCU5vZGVP
UENVQTCCASIwDQYJKoZIhvcNAQEBBQADggEPADCCAQoCggEBAOVTayEN/DtBYnpM
/d5ek57bTErI5IajVZo/8aAAoYMy3/rpM7grrLsfkDjsrZUxvSsXWSD9DE/+RWBt
MRGDlcR3B+fKVEupXVV1FCUGtYTEW8YxDzl2CRQBAzcRF3F+UvI6Y7Em6XWhhMmz
IG6P2JBiMMgxKBEj0s+YpSGPuBbZsWcmtUlymc9DwSssb5VaDTIAP8Di0HeeysUS
NU2bmhYYB5wMAokSN1kQAZvmKq5nKk82Yl8mlwRzUrfjNv2/f1luudAO9d9Sor/5
unMmT23zsmwSUp9oXhsjGgCIRXRP+vH4G4w3fYfXDgQhIwit7PHRdBTh6kHjMf8A
MPGa2b0CAwEAAaOCAScwggEjMAwGA1UdEwEB/wQCMAAwHQYDVR0OBBYEFLB1p01E
VuVpNBy2aU6v3bMqJknlMFEGA1UdIwRKMEiAFLB1p01EVuVpNBy2aU6v3bMqJknl
oSykKjAoMRIwEAYDVQQKEwlOb2RlT1BDVUExEjAQBgNVBAMTCU5vZGVPUENVQYIC
EAMwQQYDVR0RBDowOIYfdXJuOlVidW50dURlc2s6Tm9kZU9QQ1VBLUNsaWVudIIJ
bG9jYWxob3N0ggpVYnVudHVEZXNrMCwGCWCGSAGG+EIBDQQfFh1PcGVuU1NMIEdl
bmVyYXRlZCBDZXJ0aWZpY2F0ZTAOBgNVHQ8BAf8EBAMCAvwwIAYDVR0lAQH/BBYw
FAYIKwYBBQUHAwEGCCsGAQUFBwMCMA0GCSqGSIb3DQEBCwUAA4IBAQByBz2cm8jd
cLqilL64nTWgIlQn5fvRT4bu184XlwD6E9QByXqDa2htebntOF6ERK/7WnbgwrXj
a7grOUdvTkyoNl9/2pcfBQbO6i6ggfom9i3yVY7xD50nNcYT+b5RvJdXqD8ohtI7
noR5onnRw9x5ZL5/IBqF22k8Y25pMmBgW9becapQLP+fQW782QgVZ5NfwXRF0fNx
mjJUGSxqMd5LIz0lXqKxnXrpTCOLlV7B7T7MfdAhVNQQ2lt5zp2iG7mjB+/piOYz
nvSc7rrNRR/pNREraCiEzl4RS0YB9tn3lHD4BoQiaUdW6BAetbmSsYJBun5qZJO2
5lzxYSUoWu5p
-----END CERTIFICATE-----
