Certificate:
    Data:
        Version: 3 (0x2)
        Serial Number: 4098 (0x1002)
    Signature Algorithm: sha256WithRSAEncryption
        Issuer: O=NodeOPCUA, CN=NodeOPCUA
        Validity
            Not Before: Apr 30 16:29:27 2016 GMT
            Not After : Apr 30 16:29:27 2017 GMT
        Subject: O=NodeOPCUA, CN=NodeOPCUA
        Subject Public Key Info:
            Public Key Algorithm: rsaEncryption
                Public-Key: (1024 bit)
                Modulus:
                    00:cf:aa:74:97:69:7e:08:f0:0f:ee:6c:85:95:4c:
                    5e:7c:6c:ca:53:73:f3:4f:6e:39:b4:d3:1f:e2:90:
                    96:12:f6:c2:a5:e4:df:89:88:be:73:5e:72:66:86:
                    1a:fb:5a:23:c2:63:56:67:b7:ee:93:5a:53:18:42:
                    08:68:b9:88:67:94:e4:bd:a6:e4:fa:a8:6e:3a:44:
                    8e:f8:b2:78:59:89:1e:3a:62:50:50:ae:40:d9:73:
                    10:0e:89:93:b4:36:d1:c3:e8:34:22:66:6b:42:8a:
                    8e:3f:0b:e8:2c:a7:8a:38:bc:e4:ab:fa:8d:b0:c8:
                    08:52:1e:5d:f1:6a:49:9a:ad
                Exponent: 65537 (0x10001)
        X509v3 extensions:
            X509v3 Basic Constraints: critical
                CA:FALSE
            X509v3 Subject Key Identifier: 
                B9:5F:8B:B8:AA:0F:74:A8:DE:D3:30:C6:0F:99:DA:5B:38:6B:2E:7E
            X509v3 Authority Key Identifier: 
                keyid:B9:5F:8B:B8:AA:0F:74:A8:DE:D3:30:C6:0F:99:DA:5B:38:6B:2E:7E
                DirName:/O=NodeOPCUA/CN=NodeOPCUA
                serial:10:02

            X509v3 Subject Alternative Name: 
                URI:urn:UbuntuDesk:NodeOPCUA-Client, DNS:localhost, DNS:UbuntuDesk
            Netscape Comment: 
                OpenSSL Generated Certificate
            X509v3 Key Usage: critical
                Digital Signature, Non Repudiation, Key Encipherment, Data Encipherment, Key Agreement, Certificate Sign
            X509v3 Extended Key Usage: critical
                TLS Web Server Authentication, TLS Web Client Authentication
    Signature Algorithm: sha256WithRSAEncryption
         c0:a7:00:6a:ee:87:64:6e:c4:37:d9:92:c9:37:61:5d:3f:ce:
         14:f6:e0:c7:15:3c:38:2a:e1:8c:82:d1:61:00:d2:06:8f:0a:
         3f:db:bb:da:f5:b6:98:66:7f:01:5f:66:2b:bc:fa:ee:d4:6c:
         c9:f3:95:11:23:ad:11:92:31:dc:62:a4:29:a4:16:cf:14:60:
         8e:87:6f:82:c3:4b:50:96:bf:8c:14:ff:40:f3:28:af:91:0c:
         24:7a:84:9a:43:4f:61:aa:58:dd:f2:51:73:09:6d:fb:97:fc:
         9c:54:78:e2:f5:9b:81:28:0a:0c:06:ad:3b:14:91:2a:b9:13:
         69:43
-----BEGIN CERTIFICATE-----
MIIC8DCCAlmgAwIBAgICEAIwDQYJKoZIhvcNAQELBQAwKDESMBAGA1UEChMJTm9k
ZU9QQ1VBMRIwEAYDVQQDEwlOb2RlT1BDVUEwHhcNMTYwNDMwMTYyOTI3WhcNMTcw
NDMwMTYyOTI3WjAoMRIwEAYDVQQKEwlOb2RlT1BDVUExEjAQBgNVBAMTCU5vZGVP
UENVQTCBnzANBgkqhkiG9w0BAQEFAAOBjQAwgYkCgYEAz6p0l2l+CPAP7myFlUxe
fGzKU3PzT245tNMf4pCWEvbCpeTfiYi+c15yZoYa+1ojwmNWZ7fuk1pTGEIIaLmI
Z5Tkvabk+qhuOkSO+LJ4WYkeOmJQUK5A2XMQDomTtDbRw+g0ImZrQoqOPwvoLKeK
OLzkq/qNsMgIUh5d8WpJmq0CAwEAAaOCAScwggEjMAwGA1UdEwEB/wQCMAAwHQYD
VR0OBBYEFLlfi7iqD3So3tMwxg+Z2ls4ay5+MFEGA1UdIwRKMEiAFLlfi7iqD3So
3tMwxg+Z2ls4ay5+oSykKjAoMRIwEAYDVQQKEwlOb2RlT1BDVUExEjAQBgNVBAMT
CU5vZGVPUENVQYICEAIwQQYDVR0RBDowOIYfdXJuOlVidW50dURlc2s6Tm9kZU9Q
Q1VBLUNsaWVudIIJbG9jYWxob3N0ggpVYnVudHVEZXNrMCwGCWCGSAGG+EIBDQQf
Fh1PcGVuU1NMIEdlbmVyYXRlZCBDZXJ0aWZpY2F0ZTAOBgNVHQ8BAf8EBAMCAvww
IAYDVR0lAQH/BBYwFAYIKwYBBQUHAwEGCCsGAQUFBwMCMA0GCSqGSIb3DQEBCwUA
A4GBAMCnAGruh2RuxDfZksk3YV0/zhT24McVPDgq4YyC0WEA0gaPCj/bu9r1tphm
fwFfZiu8+u7UbMnzlREjrRGSMdxipCmkFs8UYI6Hb4LDS1CWv4wU/0DzKK+RDCR6
hJpDT2GqWN3yUXMJbfuX/JxUeOL1m4EoCgwGrTsUkSq5E2lD
-----END CERTIFICATE-----
