Certificate:
    Data:
        Version: 3 (0x2)
        Serial Number: 4106 (0x100a)
    Signature Algorithm: sha256WithRSAEncryption
        Issuer: O=NodeOPCUA, CN=NodeOPCUA
        Validity
            Not Before: Apr 30 16:29:27 2016 GMT
            Not After : Apr 30 16:29:27 2017 GMT
        Subject: O=NodeOPCUA, CN=NodeOPCUA
        Subject Public Key Info:
            Public Key Algorithm: rsaEncryption
                Public-Key: (1024 bit)
                Modulus:
                    00:ce:33:71:0c:1e:02:30:bf:5b:b6:4e:a4:86:cc:
                    f5:5b:d3:b4:8f:30:f2:2d:e8:0d:1b:e4:d0:83:59:
                    ba:ed:0a:a5:d5:83:fd:84:df:ca:cc:29:d4:81:4f:
                    ef:2a:57:d5:7d:06:7a:9f:86:52:ef:75:67:63:61:
                    b9:5a:03:5c:bf:67:e2:e2:f1:a7:70:5b:dc:4c:2b:
                    f2:c2:4e:de:6e:0b:19:4b:84:a8:27:81:45:85:18:
                    c1:50:62:10:ab:5e:4d:22:06:6e:d8:5f:cf:2a:75:
                    81:2b:f8:db:e0:7e:55:9b:6b:59:fd:f5:64:68:fe:
                    ab:c0:f8:cf:76:62:af:c9:69
                Exponent: 65537 (0x10001)
        X509v3 extensions:
            X509v3 Basic Constraints: critical
                CA:FALSE
            X509v3 Subject Key Identifier: 
                37:43:FC:81:4B:A4:71:43:19:CD:AD:EF:49:52:97:0D:7C:1E:57:03
            X509v3 Authority Key Identifier: 
                keyid:37:43:FC:81:4B:A4:71:43:19:CD:AD:EF:49:52:97:0D:7C:1E:57:03
                DirName:/O=NodeOPCUA/CN=NodeOPCUA
                serial:10:0A

            X509v3 Subject Alternative Name: 
                URI:urn:UbuntuDesk:NodeOPCUA-DiscoveryServer, DNS:localhost, DNS:UbuntuDesk
            Netscape Comment: 
                OpenSSL Generated Certificate
            X509v3 Key Usage: critical
                Digital Signature, Non Repudiation, Key Encipherment, Data Encipherment, Key Agreement, Certificate Sign
            X509v3 Extended Key Usage: critical
                TLS Web Server Authentication, TLS Web Client Authentication
    Signature Algorithm: sha256WithRSAEncryption
         01:5e:ab:ae:da:82:d1:16:14:04:3b:7a:78:1e:cf:06:c3:7f:
         47:58:ba:a6:20:ce:58:72:eb:55:d7:13:bf:8a:3a:d6:0e:f5:
         d5:4a:51:b0:32:0a:7e:e5:52:a7:55:e2:2f:0f:32:5d:90:2c:
         c6:79:47:73:82:36:0c:ba:a5:0b:c8:5a:79:b0:d0:fa:45:be:
         e6:65:43:c9:23:c9:f5:07:5a:c0:f1:19:09:ce:81:8c:b2:eb:
         05:8a:97:05:88:26:b5:df:63:f7:02:ff:02:f6:a5:3e:a3:c3:
         ff:24:d3:ba:fc:06:38:f8:0b:8f:d6:5c:49:a2:61:09:07:e1:
         5d:91
-----BEGIN CERTIFICATE-----
MIIC+TCCAmKgAwIBAgICEAowDQYJKoZIhvcNAQELBQAwKDESMBAGA1UEChMJTm9k
ZU9QQ1VBMRIwEAYDVQQDEwlOb2RlT1BDVUEwHhcNMTYwNDMwMTYyOTI3WhcNMTcw
NDMwMTYyOTI3WjAoMRIwEAYDVQQKEwlOb2RlT1BDVUExEjAQBgNVBAMTCU5vZGVP
UENVQTCBnzANBgkqhkiG9w0BAQEFAAOBjQAwgYkCgYEAzjNxDB4CML9btk6khsz1
W9O0jzDyLegNG+TQg1m67Qql1YP9hN/KzCnUgU/vKlfVfQZ6n4ZS73VnY2G5WgNc
v2fi4vGncFvcTCvywk7ebgsZS4SoJ4FFhRjBUGIQq15NIgZu2F/PKnWBK/jb4H5V
m2tZ/fVkaP6rwPjPdmKvyWkCAwEAAaOCATAwggEsMAwGA1UdEwEB/wQCMAAwHQYD
VR0OBBYEFDdD/IFLpHFDGc2t70lSlw18HlcDMFEGA1UdIwRKMEiAFDdD/IFLpHFD
Gc2t70lSlw18HlcDoSykKjAoMRIwEAYDVQQKEwlOb2RlT1BDVUExEjAQBgNVBAMT
CU5vZGVPUENVQYICEAowSgYDVR0RBEMwQYYodXJuOlVidW50dURlc2s6Tm9kZU9Q
Q1VBLURpc2NvdmVyeVNlcnZlcoIJbG9jYWxob3N0ggpVYnVudHVEZXNrMCwGCWCG
SAGG+EIBDQQfFh1PcGVuU1NMIEdlbmVyYXRlZCBDZXJ0aWZpY2F0ZTAOBgNVHQ8B
Af8EBAMCAvwwIAYDVR0lAQH/BBYwFAYIKwYBBQUHAwEGCCsGAQUFBwMCMA0GCSqG
SIb3DQEBCwUAA4GBAAFeq67agtEWFAQ7engezwbDf0dYuqYgzlhy61XXE7+KOtYO
9dVKUbAyCn7lUqdV4i8PMl2QLMZ5R3OCNgy6pQvIWnmw0PpFvuZlQ8kjyfUHWsDx
GQnOgYyy6wWKlwWIJrXfY/cC/wL2pT6jw/8k07r8Bjj4C4/WXEmiYQkH4V2R
-----END CERTIFICATE-----
