Certificate:
    Data:
        Version: 3 (0x2)
        Serial Number: 4105 (0x1009)
    Signature Algorithm: sha256WithRSAEncryption
        Issuer: C=FR, ST=IDF, L=Paris, O=Fake CA for Test, CN=NodeOPCUA
        Validity
            Not Before: Apr 30 16:29:27 2016 GMT
            Not After : Apr 30 16:29:27 2017 GMT
        Subject: O=NodeOPCUA, CN=NodeOPCUA
        Subject Public Key Info:
            Public Key Algorithm: rsaEncryption
                Public-Key: (2048 bit)
                Modulus:
                    00:af:d2:55:79:60:e3:e8:61:a6:bb:8b:e8:22:8b:
                    9e:c0:31:45:75:85:db:de:d1:c9:e9:da:12:ed:d9:
                    59:0b:78:74:53:48:75:ee:61:a0:e8:39:94:83:6a:
                    db:30:5d:4b:74:2c:a0:c4:c9:59:e8:50:58:11:46:
                    2e:a2:b2:3c:b9:43:cd:80:b4:15:cd:2d:59:9b:0b:
                    54:1c:dd:74:aa:1b:f5:b7:d4:8c:e4:5c:54:45:2f:
                    5f:e1:16:9b:f2:fc:67:b4:aa:b3:f1:ac:1c:aa:ad:
                    3f:8b:15:13:c8:05:90:1e:6f:56:0d:1c:c7:e4:ee:
                    2c:5c:a0:5c:c0:85:16:67:86:c5:f2:f1:3c:a7:75:
                    a0:bf:cb:08:6f:21:91:e4:32:36:26:95:fc:e8:b6:
                    aa:39:ce:17:57:d2:91:48:d7:08:40:c8:47:8c:03:
                    53:eb:65:20:d0:f1:ee:09:a7:e4:23:93:7f:5b:27:
                    77:ac:f1:25:bf:20:d6:ac:df:5b:c1:82:f4:bb:c4:
                    36:39:b9:ac:6e:6b:5a:da:3e:f8:6b:c7:b1:c0:2f:
                    c1:aa:57:4f:e2:b7:fd:3b:5b:ec:43:67:f0:bb:aa:
                    94:74:42:b0:5c:7d:d3:02:c1:b2:3b:e4:74:c1:4d:
                    69:99:bb:3e:44:38:97:62:47:8f:ee:07:bf:3b:48:
                    61:31
                Exponent: 65537 (0x10001)
        X509v3 extensions:
            X509v3 Basic Constraints: critical
                CA:FALSE
            X509v3 Subject Key Identifier: 
                38:16:0B:9A:5E:E3:45:F2:83:D7:74:81:B3:F8:5F:72:2B:27:CC:8E
            X509v3 Authority Key Identifier: 
                keyid:B2:C7:5C:1B:ED:CC:74:25:36:DB:3E:E6:CD:72:5B:1E:58:69:8E:E7
                DirName:/C=FR/ST=IDF/L=Paris/O=Fake CA for Test/CN=NodeOPCUA
                serial:EE:B8:18:2F:F3:D5:3C:97

            X509v3 Subject Alternative Name: 
                URI:urn:UbuntuDesk:NodeOPCUA-DiscoveryServer, DNS:localhost, DNS:UbuntuDesk
            Netscape Comment: 
                OpenSSL Generated Certificate
            X509v3 Key Usage: critical
                Digital Signature, Non Repudiation, Key Encipherment, Data Encipherment, Key Agreement, Certificate Sign
            X509v3 Extended Key Usage: critical
                TLS Web Server Authentication, TLS Web Client Authentication
    Signature Algorithm: sha256WithRSAEncryption
         32:a5:99:db:7e:1d:c6:32:b9:af:96:bc:f8:e1:a2:8b:ae:57:
         2f:30:a9:04:73:b7:4e:86:73:b7:e4:6f:eb:3b:32:2a:2e:b5:
         94:65:e0:e5:8f:74:1c:37:3b:fc:b3:74:b8:c4:c8:f4:87:c5:
         51:a0:f6:3f:a6:c1:cb:94:84:7d:7e:dd:22:fc:da:ba:3e:29:
         17:8e:2e:76:f2:39:82:cd:01:e3:f9:a5:fa:5f:63:24:2b:a7:
         d8:7f:cd:bf:c7:24:b6:a4:d4:92:cf:46:72:0e:87:a1:d5:5d:
         68:1d:25:9b:48:af:c1:60:ac:84:2a:71:d1:d6:19:26:12:2f:
         47:93:45:1c:45:fb:f7:dd:45:e6:65:8e:2f:33:fc:6e:1d:c7:
         93:e6:a8:07:97:bf:78:03:a8:ba:5d:3d:9e:73:f9:79:a3:b3:
         a3:29:bd:5a:be:fd:0e:9b:62:81:95:8a:7f:7b:c9:9d:30:8f:
         9f:45:d8:e1:5f:ab:54:ad:f1:d9:52:c2:1f:d6:3e:b4:c8:aa:
         fb:4c:ea:19:34:c4:46:8d:dc:e1:9b:e4:a6:a0:24:18:7d:b5:
         9a:65:b7:1a:72:1a:80:08:da:8f:81:c5:3f:1b:63:00:1a:d8:
         a8:fd:6a:89:fa:bf:5c:d9:05:55:71:fe:f8:62:05:ba:e5:4b:
         1b:21:d1:8f
-----BEGIN CERTIFICATE-----
MIIEbDCCA1SgAwIBAgICEAkwDQYJKoZIhvcNAQELBQAwWjELMAkGA1UEBhMCRlIx
DDAKBgNVBAgTA0lERjEOMAwGA1UEBxMFUGFyaXMxGTAXBgNVBAoTEEZha2UgQ0Eg
Zm9yIFRlc3QxEjAQBgNVBAMTCU5vZGVPUENVQTAeFw0xNjA0MzAxNjI5MjdaFw0x
NzA0MzAxNjI5MjdaMCgxEjAQBgNVBAoTCU5vZGVPUENVQTESMBAGA1UEAxMJTm9k
ZU9QQ1VBMIIBIjANBgkqhkiG9w0BAQEFAAOCAQ8AMIIBCgKCAQEAr9JVeWDj6GGm
u4voIouewDFFdYXb3tHJ6doS7dlZC3h0U0h17mGg6DmUg2rbMF1LdCygxMlZ6FBY
EUYuorI8uUPNgLQVzS1ZmwtUHN10qhv1t9SM5FxURS9f4Rab8vxntKqz8awcqq0/
ixUTyAWQHm9WDRzH5O4sXKBcwIUWZ4bF8vE8p3Wgv8sIbyGR5DI2JpX86LaqOc4X
V9KRSNcIQMhHjANT62Ug0PHuCafkI5N/Wyd3rPElvyDWrN9bwYL0u8Q2Obmsbmta
2j74a8exwC/BqldP4rf9O1vsQ2fwu6qUdEKwXH3TAsGyO+R0wU1pmbs+RDiXYkeP
7ge/O0hhMQIDAQABo4IBbDCCAWgwDAYDVR0TAQH/BAIwADAdBgNVHQ4EFgQUOBYL
ml7jRfKD13SBs/hfcisnzI4wgYwGA1UdIwSBhDCBgYAUssdcG+3MdCU22z7mzXJb
HlhpjuehXqRcMFoxCzAJBgNVBAYTAkZSMQwwCgYDVQQIEwNJREYxDjAMBgNVBAcT
BVBhcmlzMRkwFwYDVQQKExBGYWtlIENBIGZvciBUZXN0MRIwEAYDVQQDEwlOb2Rl
T1BDVUGCCQDuuBgv89U8lzBKBgNVHREEQzBBhih1cm46VWJ1bnR1RGVzazpOb2Rl
T1BDVUEtRGlzY292ZXJ5U2VydmVygglsb2NhbGhvc3SCClVidW50dURlc2swLAYJ
YIZIAYb4QgENBB8WHU9wZW5TU0wgR2VuZXJhdGVkIENlcnRpZmljYXRlMA4GA1Ud
DwEB/wQEAwIC/DAgBgNVHSUBAf8EFjAUBggrBgEFBQcDAQYIKwYBBQUHAwIwDQYJ
KoZIhvcNAQELBQADggEBADKlmdt+HcYyua+WvPjhoouuVy8wqQRzt06Gc7fkb+s7
MioutZRl4OWPdBw3O/yzdLjEyPSHxVGg9j+mwcuUhH1+3SL82ro+KReOLnbyOYLN
AeP5pfpfYyQrp9h/zb/HJLak1JLPRnIOh6HVXWgdJZtIr8FgrIQqcdHWGSYSL0eT
RRxF+/fdReZlji8z/G4dx5PmqAeXv3gDqLpdPZ5z+Xmjs6MpvVq+/Q6bYoGVin97
yZ0wj59F2OFfq1St8dlSwh/WPrTIqvtM6hk0xEaN3OGb5KagJBh9tZpltxpyGoAI
2o+BxT8bYwAa2Kj9aon6v1zZBVVx/vhiBbrlSxsh0Y8=
-----END CERTIFICATE-----
-----BEGIN CERTIFICATE-----
MIIEkjCCA3qgAwIBAgIJAO64GC/z1TyXMA0GCSqGSIb3DQEBCwUAMFoxCzAJBgNV
BAYTAkZSMQwwCgYDVQQIEwNJREYxDjAMBgNVBAcTBVBhcmlzMRkwFwYDVQQKExBG
YWtlIENBIGZvciBUZXN0MRIwEAYDVQQDEwlOb2RlT1BDVUEwHhcNMTYwNTAxMTYy
OTI3WhcNMjYwNDI5MTYyOTI3WjBaMQswCQYDVQQGEwJGUjEMMAoGA1UECBMDSURG
MQ4wDAYDVQQHEwVQYXJpczEZMBcGA1UEChMQRmFrZSBDQSBmb3IgVGVzdDESMBAG
A1UEAxMJTm9kZU9QQ1VBMIIBIjANBgkqhkiG9w0BAQEFAAOCAQ8AMIIBCgKCAQEA
vyRfEchU06PycTUGHOdekWD5LpcebsHX7EJoamZbpeUPvX7l03+RDCajFgglaf/C
drm/hCrSO6SCK6gbvYuDn53bQjnTM+EPWd6JlpP+rvrLB48WZ8b1SYsJLgt5OPvU
cFvPIGDj6/BS93phZM4ECERgvLeRDEnbnZ9qYC+gs97lghRDV63dz/GgfoD7w1og
By6mVV6IV+eXpgfGg2dkMF4+bV8mbd5S58in0QZpGBdi3o7erajEhhOuaS2QS4zp
uz8ZcgxpxZGJ0WLGwr/+h2+O4yKvgrBMoKqlwenxnY+IL7L1B3sHj6+4hy+GgQdI
TwUnIvx29Ega0dcisduo9QIDAQABo4IBWTCCAVUwHQYDVR0OBBYEFLLHXBvtzHQl
Nts+5s1yWx5YaY7nMIGMBgNVHSMEgYQwgYGAFLLHXBvtzHQlNts+5s1yWx5YaY7n
oV6kXDBaMQswCQYDVQQGEwJGUjEMMAoGA1UECBMDSURGMQ4wDAYDVQQHEwVQYXJp
czEZMBcGA1UEChMQRmFrZSBDQSBmb3IgVGVzdDESMBAGA1UEAxMJTm9kZU9QQ1VB
ggkA7rgYL/PVPJcwDAYDVR0TBAUwAwEB/zAOBgNVHQ8BAf8EBAMCAQYwVwYJYIZI
AYb4QgENBEoWSENBIENlcnRpZmljYXRlIGdlbmVyYXRlZCBieSBOb2RlLU9QQ1VB
IENlcnRpZmljYXRlIHV0aWxpdHkgdXNpbmcgb3BlbnNzbDAuBgNVHR8EJzAlMCOg
IaAfhh1odHRwOi8vbG9jYWxob3N0Ojg5MDAvY3JsLnBlbTANBgkqhkiG9w0BAQsF
AAOCAQEAXXmRK/TlWT9hPC09LGe3C3wXuJYbSuEEX2aF8Ml96o3S3qUqdry81xZr
wPKUjU104vr27NHPg0Ff/nmVrt+G8i6TUhcOMwdkNvdmcvjfeagf9Oy0WdXpYLe3
gKMo3EMqCMUfbUDMM0yGx+WLpHp4BWuO6/iufD3bSyRZRQYb3BIk6JItdZ+k2CaN
u12UedUkPUN3IaNMq9eGmB+J7GrzKm8OrHgOELxoq+JEoZ/kH/vka0T+vpPyeicf
TD8Qx600ZpdEkSbIqahoO8lKZB/xbamfALQ8FLdCjYfgFQE6s8I7dFr9WR/8NbXX
OqM1kOz4UnTXyQ3DnzTmkStXdxGLfQ==
-----END CERTIFICATE-----
