Certificate:
    Data:
        Version: 3 (0x2)
        Serial Number: 4104 (0x1008)
    Signature Algorithm: sha256WithRSAEncryption
        Issuer: C=FR, ST=IDF, L=Paris, O=Fake CA for Test, CN=NodeOPCUA
        Validity
            Not Before: Apr 30 16:29:27 2016 GMT
            Not After : Apr 30 16:29:27 2017 GMT
        Subject: O=NodeOPCUA, CN=NodeOPCUA
        Subject Public Key Info:
            Public Key Algorithm: rsaEncryption
                Public-Key: (1024 bit)
                Modulus:
                    00:ce:33:71:0c:1e:02:30:bf:5b:b6:4e:a4:86:cc:
                    f5:5b:d3:b4:8f:30:f2:2d:e8:0d:1b:e4:d0:83:59:
                    ba:ed:0a:a5:d5:83:fd:84:df:ca:cc:29:d4:81:4f:
                    ef:2a:57:d5:7d:06:7a:9f:86:52:ef:75:67:63:61:
                    b9:5a:03:5c:bf:67:e2:e2:f1:a7:70:5b:dc:4c:2b:
                    f2:c2:4e:de:6e:0b:19:4b:84:a8:27:81:45:85:18:
                    c1:50:62:10:ab:5e:4d:22:06:6e:d8:5f:cf:2a:75:
                    81:2b:f8:db:e0:7e:55:9b:6b:59:fd:f5:64:68:fe:
                    ab:c0:f8:cf:76:62:af:c9:69
                Exponent: 65537 (0x10001)
        X509v3 extensions:
            X509v3 Basic Constraints: critical
                CA:FALSE
            X509v3 Subject Key Identifier: 
                37:43:FC:81:4B:A4:71:43:19:CD:AD:EF:49:52:97:0D:7C:1E:57:03
            X509v3 Authority Key Identifier: 
                keyid:B2:C7:5C:1B:ED:CC:74:25:36:DB:3E:E6:CD:72:5B:1E:58:69:8E:E7
                DirName:/C=FR/ST=IDF/L=Paris/O=Fake CA for Test/CN=NodeOPCUA
                serial:EE:B8:18:2F:F3:D5:3C:97

            X509v3 Subject Alternative Name: 
                URI:urn:UbuntuDesk:NodeOPCUA-DiscoveryServer, DNS:localhost, DNS:UbuntuDesk
            Netscape Comment: 
                OpenSSL Generated Certificate
            X509v3 Key Usage: critical
                Digital Signature, Non Repudiation, Key Encipherment, Data Encipherment, Key Agreement, Certificate Sign
            X509v3 Extended Key Usage: critical
                TLS Web Server Authentication, TLS Web Client Authentication
    Signature Algorithm: sha256WithRSAEncryption
         9b:60:eb:4b:de:64:c8:81:14:34:74:16:17:b4:1d:35:0c:75:
         66:fa:c2:34:ee:f7:a7:48:4d:58:5e:36:33:45:a8:58:90:67:
         f4:6f:d5:01:ad:af:69:c8:c4:42:45:a7:b3:76:4d:01:9d:5f:
         0f:27:bc:09:61:8f:a6:96:15:e0:f2:aa:84:f0:5d:32:d5:0f:
         7e:8d:7a:ef:85:6b:4b:32:a8:26:6c:fe:06:12:8a:05:72:fd:
         9b:2f:ad:de:ea:73:d6:31:ae:66:5d:49:83:a8:ee:19:f6:7c:
         9e:be:43:d4:c7:10:5d:ea:47:6d:93:a8:0a:91:51:3e:fb:c0:
         83:ce:cd:45:97:ba:ab:82:5d:a9:dc:23:42:b6:26:a5:56:67:
         38:f2:1e:26:89:c7:16:ee:d2:96:cc:a4:0b:59:ec:6b:fe:cb:
         17:6b:49:bf:8f:ea:6c:15:1f:54:18:12:db:48:92:30:4a:9f:
         7b:6c:cc:fd:51:27:d7:36:9d:9d:8c:58:8d:b8:82:f1:35:d9:
         08:06:0d:64:ce:4c:d7:c6:9a:33:59:9d:18:95:95:03:af:da:
         de:50:c0:62:e5:20:e9:17:5b:57:a9:99:6a:1b:38:d2:32:5f:
         70:69:87:74:fa:e7:1e:db:c3:60:76:21:eb:f9:d4:e9:9a:ca:
         74:c7:94:1c
-----BEGIN CERTIFICATE-----
MIID6DCCAtCgAwIBAgICEAgwDQYJKoZIhvcNAQELBQAwWjELMAkGA1UEBhMCRlIx
DDAKBgNVBAgTA0lERjEOMAwGA1UEBxMFUGFyaXMxGTAXBgNVBAoTEEZha2UgQ0Eg
Zm9yIFRlc3QxEjAQBgNVBAMTCU5vZGVPUENVQTAeFw0xNjA0MzAxNjI5MjdaFw0x
NzA0MzAxNjI5MjdaMCgxEjAQBgNVBAoTCU5vZGVPUENVQTESMBAGA1UEAxMJTm9k
ZU9QQ1VBMIGfMA0GCSqGSIb3DQEBAQUAA4GNADCBiQKBgQDOM3EMHgIwv1u2TqSG
zPVb07SPMPIt6A0b5NCDWbrtCqXVg/2E38rMKdSBT+8qV9V9BnqfhlLvdWdjYbla
A1y/Z+Li8adwW9xMK/LCTt5uCxlLhKgngUWFGMFQYhCrXk0iBm7YX88qdYEr+Nvg
flWba1n99WRo/qvA+M92Yq/JaQIDAQABo4IBbDCCAWgwDAYDVR0TAQH/BAIwADAd
BgNVHQ4EFgQUN0P8gUukcUMZza3vSVKXDXweVwMwgYwGA1UdIwSBhDCBgYAUssdc
G+3MdCU22z7mzXJbHlhpjuehXqRcMFoxCzAJBgNVBAYTAkZSMQwwCgYDVQQIEwNJ
REYxDjAMBgNVBAcTBVBhcmlzMRkwFwYDVQQKExBGYWtlIENBIGZvciBUZXN0MRIw
EAYDVQQDEwlOb2RlT1BDVUGCCQDuuBgv89U8lzBKBgNVHREEQzBBhih1cm46VWJ1
bnR1RGVzazpOb2RlT1BDVUEtRGlzY292ZXJ5U2VydmVygglsb2NhbGhvc3SCClVi
dW50dURlc2swLAYJYIZIAYb4QgENBB8WHU9wZW5TU0wgR2VuZXJhdGVkIENlcnRp
ZmljYXRlMA4GA1UdDwEB/wQEAwIC/DAgBgNVHSUBAf8EFjAUBggrBgEFBQcDAQYI
KwYBBQUHAwIwDQYJKoZIhvcNAQELBQADggEBAJtg60veZMiBFDR0Fhe0HTUMdWb6
wjTu96dITVheNjNFqFiQZ/Rv1QGtr2nIxEJFp7N2TQGdXw8nvAlhj6aWFeDyqoTw
XTLVD36Neu+Fa0syqCZs/gYSigVy/Zsvrd7qc9YxrmZdSYOo7hn2fJ6+Q9THEF3q
R22TqAqRUT77wIPOzUWXuquCXancI0K2JqVWZzjyHiaJxxbu0pbMpAtZ7Gv+yxdr
Sb+P6mwVH1QYEttIkjBKn3tszP1RJ9c2nZ2MWI24gvE12QgGDWTOTNfGmjNZnRiV
lQOv2t5QwGLlIOkXW1epmWobONIyX3Bph3T65x7bw2B2Iev51OmaynTHlBw=
-----END CERTIFICATE-----
-----BEGIN CERTIFICATE-----
MIIEkjCCA3qgAwIBAgIJAO64GC/z1TyXMA0GCSqGSIb3DQEBCwUAMFoxCzAJBgNV
BAYTAkZSMQwwCgYDVQQIEwNJREYxDjAMBgNVBAcTBVBhcmlzMRkwFwYDVQQKExBG
YWtlIENBIGZvciBUZXN0MRIwEAYDVQQDEwlOb2RlT1BDVUEwHhcNMTYwNTAxMTYy
OTI3WhcNMjYwNDI5MTYyOTI3WjBaMQswCQYDVQQGEwJGUjEMMAoGA1UECBMDSURG
MQ4wDAYDVQQHEwVQYXJpczEZMBcGA1UEChMQRmFrZSBDQSBmb3IgVGVzdDESMBAG
A1UEAxMJTm9kZU9QQ1VBMIIBIjANBgkqhkiG9w0BAQEFAAOCAQ8AMIIBCgKCAQEA
vyRfEchU06PycTUGHOdekWD5LpcebsHX7EJoamZbpeUPvX7l03+RDCajFgglaf/C
drm/hCrSO6SCK6gbvYuDn53bQjnTM+EPWd6JlpP+rvrLB48WZ8b1SYsJLgt5OPvU
cFvPIGDj6/BS93phZM4ECERgvLeRDEnbnZ9qYC+gs97lghRDV63dz/GgfoD7w1og
By6mVV6IV+eXpgfGg2dkMF4+bV8mbd5S58in0QZpGBdi3o7erajEhhOuaS2QS4zp
uz8ZcgxpxZGJ0WLGwr/+h2+O4yKvgrBMoKqlwenxnY+IL7L1B3sHj6+4hy+GgQdI
TwUnIvx29Ega0dcisduo9QIDAQABo4IBWTCCAVUwHQYDVR0OBBYEFLLHXBvtzHQl
Nts+5s1yWx5YaY7nMIGMBgNVHSMEgYQwgYGAFLLHXBvtzHQlNts+5s1yWx5YaY7n
oV6kXDBaMQswCQYDVQQGEwJGUjEMMAoGA1UECBMDSURGMQ4wDAYDVQQHEwVQYXJp
czEZMBcGA1UEChMQRmFrZSBDQSBmb3IgVGVzdDESMBAGA1UEAxMJTm9kZU9QQ1VB
ggkA7rgYL/PVPJcwDAYDVR0TBAUwAwEB/zAOBgNVHQ8BAf8EBAMCAQYwVwYJYIZI
AYb4QgENBEoWSENBIENlcnRpZmljYXRlIGdlbmVyYXRlZCBieSBOb2RlLU9QQ1VB
IENlcnRpZmljYXRlIHV0aWxpdHkgdXNpbmcgb3BlbnNzbDAuBgNVHR8EJzAlMCOg
IaAfhh1odHRwOi8vbG9jYWxob3N0Ojg5MDAvY3JsLnBlbTANBgkqhkiG9w0BAQsF
AAOCAQEAXXmRK/TlWT9hPC09LGe3C3wXuJYbSuEEX2aF8Ml96o3S3qUqdry81xZr
wPKUjU104vr27NHPg0Ff/nmVrt+G8i6TUhcOMwdkNvdmcvjfeagf9Oy0WdXpYLe3
gKMo3EMqCMUfbUDMM0yGx+WLpHp4BWuO6/iufD3bSyRZRQYb3BIk6JItdZ+k2CaN
u12UedUkPUN3IaNMq9eGmB+J7GrzKm8OrHgOELxoq+JEoZ/kH/vka0T+vpPyeicf
TD8Qx600ZpdEkSbIqahoO8lKZB/xbamfALQ8FLdCjYfgFQE6s8I7dFr9WR/8NbXX
OqM1kOz4UnTXyQ3DnzTmkStXdxGLfQ==
-----END CERTIFICATE-----
