Certificate:
    Data:
        Version: 3 (0x2)
        Serial Number: 4101 (0x1005)
    Signature Algorithm: sha256WithRSAEncryption
        Issuer: C=FR, ST=IDF, L=Paris, O=Fake CA for Test, CN=NodeOPCUA
        Validity
            Not Before: Apr 30 16:29:27 2016 GMT
            Not After : Apr 30 16:29:27 2017 GMT
        Subject: O=NodeOPCUA, CN=NodeOPCUA
        Subject Public Key Info:
            Public Key Algorithm: rsaEncryption
                Public-Key: (2048 bit)
                Modulus:
                    00:bf:b6:6e:35:04:27:40:8d:f0:fb:92:cd:bb:13:
                    01:c3:13:7b:a0:98:b0:45:f7:04:9a:c7:3a:82:77:
                    a0:0c:42:eb:fd:18:d8:eb:4e:bc:d0:ab:22:01:4e:
                    84:a1:01:9d:99:c9:cf:2d:2d:39:39:05:97:5d:b5:
                    50:1a:a9:a7:7d:55:2e:50:48:13:17:6c:d1:a0:4a:
                    15:5d:4d:5c:57:9e:1a:2e:d5:9d:a5:65:7a:5a:db:
                    5d:ac:41:5e:d2:08:6a:87:07:89:f1:1e:f7:04:9d:
                    21:fd:70:62:c8:47:ef:dc:ef:79:4c:36:a8:3b:36:
                    b5:65:1c:31:5f:6b:41:93:13:0d:4e:5c:3b:71:63:
                    18:3a:43:fd:e7:0b:17:72:bc:e2:6b:66:58:6b:34:
                    8c:4d:e1:48:3a:f3:b5:a6:b3:d3:9b:f5:ec:f3:cf:
                    13:e3:d6:ea:e3:44:62:42:ad:1b:e4:1f:70:97:c8:
                    b2:da:72:08:b7:1d:ae:70:ae:77:98:39:b5:b9:b2:
                    b8:df:1e:7e:d9:0b:81:3f:c5:58:9d:7e:91:f5:5d:
                    a0:b6:8b:8e:dd:f6:ec:0f:67:8c:ea:dd:f0:cd:b7:
                    9c:a0:11:d4:aa:a7:13:6b:24:ab:a3:f6:94:06:de:
                    a9:2d:41:ba:f1:fd:67:84:57:33:27:92:a5:9f:e0:
                    d9:b9
                Exponent: 65537 (0x10001)
        X509v3 extensions:
            X509v3 Basic Constraints: critical
                CA:FALSE
            X509v3 Subject Key Identifier: 
                76:9B:93:82:76:3A:F5:F1:F4:9C:B0:2E:9C:3E:8D:02:DE:92:D5:19
            X509v3 Authority Key Identifier: 
                keyid:B2:C7:5C:1B:ED:CC:74:25:36:DB:3E:E6:CD:72:5B:1E:58:69:8E:E7
                DirName:/C=FR/ST=IDF/L=Paris/O=Fake CA for Test/CN=NodeOPCUA
                serial:EE:B8:18:2F:F3:D5:3C:97

            X509v3 Subject Alternative Name: 
                URI:urn:UbuntuDesk:NodeOPCUA-Server, DNS:localhost, DNS:UbuntuDesk
            Netscape Comment: 
                OpenSSL Generated Certificate
            X509v3 Key Usage: critical
                Digital Signature, Non Repudiation, Key Encipherment, Data Encipherment, Key Agreement, Certificate Sign
            X509v3 Extended Key Usage: critical
                TLS Web Server Authentication, TLS Web Client Authentication
    Signature Algorithm: sha256WithRSAEncryption
         90:3d:67:22:f8:2b:77:4d:0c:99:e8:25:ea:3a:af:e8:e8:91:
         6e:05:3b:60:96:71:ca:07:40:b1:82:ef:b2:86:21:b6:79:f0:
         99:aa:71:47:64:d4:9a:2c:eb:62:cf:04:a7:69:ee:3c:ee:fa:
         f8:ac:1c:1c:a0:4a:d3:f9:86:71:a3:d5:4b:12:40:0b:d6:b5:
         7c:9e:84:ef:10:2a:04:6d:1d:95:0f:b5:bc:13:79:a5:6b:05:
         6e:18:22:c3:ef:66:be:b0:28:d7:7a:1a:6f:7c:2c:55:6a:ba:
         cc:1b:4b:01:ff:b3:0a:7f:9b:48:64:35:75:ce:4c:fc:ec:69:
         bd:61:6c:e3:03:b4:36:11:ea:27:38:c1:42:a9:0f:32:cd:1a:
         67:d8:dd:b4:64:2f:f0:93:ea:e7:e9:bc:96:03:5d:0e:d3:8e:
         f6:77:00:9b:34:b4:fc:f5:73:b4:e3:89:78:16:15:f1:73:63:
         97:8e:a9:aa:fb:27:08:42:01:ec:90:19:81:3c:d8:f0:6a:bd:
         88:17:95:59:5f:07:66:a7:b5:12:6e:17:32:4b:b6:d9:17:7f:
         db:b7:54:3d:d9:0a:61:c5:98:b6:08:ce:8a:4b:7c:b0:94:86:
         ab:1b:ad:52:f6:2c:29:fc:a2:3c:b5:44:9e:9c:31:61:84:f8:
         48:71:9c:80
-----BEGIN CERTIFICATE-----
MIIEYzCCA0ugAwIBAgICEAUwDQYJKoZIhvcNAQELBQAwWjELMAkGA1UEBhMCRlIx
DDAKBgNVBAgTA0lERjEOMAwGA1UEBxMFUGFyaXMxGTAXBgNVBAoTEEZha2UgQ0Eg
Zm9yIFRlc3QxEjAQBgNVBAMTCU5vZGVPUENVQTAeFw0xNjA0MzAxNjI5MjdaFw0x
NzA0MzAxNjI5MjdaMCgxEjAQBgNVBAoTCU5vZGVPUENVQTESMBAGA1UEAxMJTm9k
ZU9QQ1VBMIIBIjANBgkqhkiG9w0BAQEFAAOCAQ8AMIIBCgKCAQEAv7ZuNQQnQI3w
+5LNuxMBwxN7oJiwRfcEmsc6gnegDELr/RjY60680KsiAU6EoQGdmcnPLS05OQWX
XbVQGqmnfVUuUEgTF2zRoEoVXU1cV54aLtWdpWV6WttdrEFe0ghqhweJ8R73BJ0h
/XBiyEfv3O95TDaoOza1ZRwxX2tBkxMNTlw7cWMYOkP95wsXcrzia2ZYazSMTeFI
OvO1prPTm/Xs888T49bq40RiQq0b5B9wl8iy2nIItx2ucK53mDm1ubK43x5+2QuB
P8VYnX6R9V2gtouO3fbsD2eM6t3wzbecoBHUqqcTaySro/aUBt6pLUG68f1nhFcz
J5Kln+DZuQIDAQABo4IBYzCCAV8wDAYDVR0TAQH/BAIwADAdBgNVHQ4EFgQUdpuT
gnY69fH0nLAunD6NAt6S1RkwgYwGA1UdIwSBhDCBgYAUssdcG+3MdCU22z7mzXJb
HlhpjuehXqRcMFoxCzAJBgNVBAYTAkZSMQwwCgYDVQQIEwNJREYxDjAMBgNVBAcT
BVBhcmlzMRkwFwYDVQQKExBGYWtlIENBIGZvciBUZXN0MRIwEAYDVQQDEwlOb2Rl
T1BDVUGCCQDuuBgv89U8lzBBBgNVHREEOjA4hh91cm46VWJ1bnR1RGVzazpOb2Rl
T1BDVUEtU2VydmVygglsb2NhbGhvc3SCClVidW50dURlc2swLAYJYIZIAYb4QgEN
BB8WHU9wZW5TU0wgR2VuZXJhdGVkIENlcnRpZmljYXRlMA4GA1UdDwEB/wQEAwIC
/DAgBgNVHSUBAf8EFjAUBggrBgEFBQcDAQYIKwYBBQUHAwIwDQYJKoZIhvcNAQEL
BQADggEBAJA9ZyL4K3dNDJnoJeo6r+jokW4FO2CWccoHQLGC77KGIbZ58JmqcUdk
1Jos62LPBKdp7jzu+visHBygStP5hnGj1UsSQAvWtXyehO8QKgRtHZUPtbwTeaVr
BW4YIsPvZr6wKNd6Gm98LFVquswbSwH/swp/m0hkNXXOTPzsab1hbOMDtDYR6ic4
wUKpDzLNGmfY3bRkL/CT6ufpvJYDXQ7TjvZ3AJs0tPz1c7TjiXgWFfFzY5eOqar7
JwhCAeyQGYE82PBqvYgXlVlfB2antRJuFzJLttkXf9u3VD3ZCmHFmLYIzopLfLCU
hqsbrVL2LCn8ojy1RJ6cMWGE+EhxnIA=
-----END CERTIFICATE-----
-----BEGIN CERTIFICATE-----
MIIEkjCCA3qgAwIBAgIJAO64GC/z1TyXMA0GCSqGSIb3DQEBCwUAMFoxCzAJBgNV
BAYTAkZSMQwwCgYDVQQIEwNJREYxDjAMBgNVBAcTBVBhcmlzMRkwFwYDVQQKExBG
YWtlIENBIGZvciBUZXN0MRIwEAYDVQQDEwlOb2RlT1BDVUEwHhcNMTYwNTAxMTYy
OTI3WhcNMjYwNDI5MTYyOTI3WjBaMQswCQYDVQQGEwJGUjEMMAoGA1UECBMDSURG
MQ4wDAYDVQQHEwVQYXJpczEZMBcGA1UEChMQRmFrZSBDQSBmb3IgVGVzdDESMBAG
A1UEAxMJTm9kZU9QQ1VBMIIBIjANBgkqhkiG9w0BAQEFAAOCAQ8AMIIBCgKCAQEA
vyRfEchU06PycTUGHOdekWD5LpcebsHX7EJoamZbpeUPvX7l03+RDCajFgglaf/C
drm/hCrSO6SCK6gbvYuDn53bQjnTM+EPWd6JlpP+rvrLB48WZ8b1SYsJLgt5OPvU
cFvPIGDj6/BS93phZM4ECERgvLeRDEnbnZ9qYC+gs97lghRDV63dz/GgfoD7w1og
By6mVV6IV+eXpgfGg2dkMF4+bV8mbd5S58in0QZpGBdi3o7erajEhhOuaS2QS4zp
uz8ZcgxpxZGJ0WLGwr/+h2+O4yKvgrBMoKqlwenxnY+IL7L1B3sHj6+4hy+GgQdI
TwUnIvx29Ega0dcisduo9QIDAQABo4IBWTCCAVUwHQYDVR0OBBYEFLLHXBvtzHQl
Nts+5s1yWx5YaY7nMIGMBgNVHSMEgYQwgYGAFLLHXBvtzHQlNts+5s1yWx5YaY7n
oV6kXDBaMQswCQYDVQQGEwJGUjEMMAoGA1UECBMDSURGMQ4wDAYDVQQHEwVQYXJp
czEZMBcGA1UEChMQRmFrZSBDQSBmb3IgVGVzdDESMBAGA1UEAxMJTm9kZU9QQ1VB
ggkA7rgYL/PVPJcwDAYDVR0TBAUwAwEB/zAOBgNVHQ8BAf8EBAMCAQYwVwYJYIZI
AYb4QgENBEoWSENBIENlcnRpZmljYXRlIGdlbmVyYXRlZCBieSBOb2RlLU9QQ1VB
IENlcnRpZmljYXRlIHV0aWxpdHkgdXNpbmcgb3BlbnNzbDAuBgNVHR8EJzAlMCOg
IaAfhh1odHRwOi8vbG9jYWxob3N0Ojg5MDAvY3JsLnBlbTANBgkqhkiG9w0BAQsF
AAOCAQEAXXmRK/TlWT9hPC09LGe3C3wXuJYbSuEEX2aF8Ml96o3S3qUqdry81xZr
wPKUjU104vr27NHPg0Ff/nmVrt+G8i6TUhcOMwdkNvdmcvjfeagf9Oy0WdXpYLe3
gKMo3EMqCMUfbUDMM0yGx+WLpHp4BWuO6/iufD3bSyRZRQYb3BIk6JItdZ+k2CaN
u12UedUkPUN3IaNMq9eGmB+J7GrzKm8OrHgOELxoq+JEoZ/kH/vka0T+vpPyeicf
TD8Qx600ZpdEkSbIqahoO8lKZB/xbamfALQ8FLdCjYfgFQE6s8I7dFr9WR/8NbXX
OqM1kOz4UnTXyQ3DnzTmkStXdxGLfQ==
-----END CERTIFICATE-----
