Certificate:
    Data:
        Version: 3 (0x2)
        Serial Number: 4103 (0x1007)
    Signature Algorithm: sha256WithRSAEncryption
        Issuer: O=NodeOPCUA, CN=NodeOPCUA
        Validity
            Not Before: Apr 30 16:29:27 2016 GMT
            Not After : Apr 30 16:29:27 2017 GMT
        Subject: O=NodeOPCUA, CN=NodeOPCUA
        Subject Public Key Info:
            Public Key Algorithm: rsaEncryption
                Public-Key: (2048 bit)
                Modulus:
                    00:bf:b6:6e:35:04:27:40:8d:f0:fb:92:cd:bb:13:
                    01:c3:13:7b:a0:98:b0:45:f7:04:9a:c7:3a:82:77:
                    a0:0c:42:eb:fd:18:d8:eb:4e:bc:d0:ab:22:01:4e:
                    84:a1:01:9d:99:c9:cf:2d:2d:39:39:05:97:5d:b5:
                    50:1a:a9:a7:7d:55:2e:50:48:13:17:6c:d1:a0:4a:
                    15:5d:4d:5c:57:9e:1a:2e:d5:9d:a5:65:7a:5a:db:
                    5d:ac:41:5e:d2:08:6a:87:07:89:f1:1e:f7:04:9d:
                    21:fd:70:62:c8:47:ef:dc:ef:79:4c:36:a8:3b:36:
                    b5:65:1c:31:5f:6b:41:93:13:0d:4e:5c:3b:71:63:
                    18:3a:43:fd:e7:0b:17:72:bc:e2:6b:66:58:6b:34:
                    8c:4d:e1:48:3a:f3:b5:a6:b3:d3:9b:f5:ec:f3:cf:
                    13:e3:d6:ea:e3:44:62:42:ad:1b:e4:1f:70:97:c8:
                    b2:da:72:08:b7:1d:ae:70:ae:77:98:39:b5:b9:b2:
                    b8:df:1e:7e:d9:0b:81:3f:c5:58:9d:7e:91:f5:5d:
                    a0:b6:8b:8e:dd:f6:ec:0f:67:8c:ea:dd:f0:cd:b7:
                    9c:a0:11:d4:aa:a7:13:6b:24:ab:a3:f6:94:06:de:
                    a9:2d:41:ba:f1:fd:67:84:57:33:27:92:a5:9f:e0:
                    d9:b9
                Exponent: 65537 (0x10001)
        X509v3 extensions:
            X509v3 Basic Constraints: critical
                CA:FALSE
            X509v3 Subject Key Identifier: 
                76:9B:93:82:76:3A:F5:F1:F4:9C:B0:2E:9C:3E:8D:02:DE:92:D5:19
            X509v3 Authority Key Identifier: 
                keyid:76:9B:93:82:76:3A:F5:F1:F4:9C:B0:2E:9C:3E:8D:02:DE:92:D5:19
                DirName:/O=NodeOPCUA/CN=NodeOPCUA
                serial:10:07

            X509v3 Subject Alternative Name: 
                URI:urn:UbuntuDesk:NodeOPCUA-Server, DNS:localhost, DNS:UbuntuDesk
            Netscape Comment: 
                OpenSSL Generated Certificate
            X509v3 Key Usage: critical
                Digital Signature, Non Repudiation, Key Encipherment, Data Encipherment, Key Agreement, Certificate Sign
            X509v3 Extended Key Usage: critical
                TLS Web Server Authentication, TLS Web Client Authentication
    Signature Algorithm: sha256WithRSAEncryption
         63:19:2d:00:af:30:28:d0:98:42:1a:6c:ba:3b:2a:27:3f:9d:
         53:84:49:89:3b:d5:6e:09:bb:78:35:c2:93:af:11:ee:17:ab:
         0c:f7:1f:5c:23:12:29:29:3c:1b:5f:59:88:e9:81:c9:8f:dd:
         68:ae:29:0d:c0:12:7c:4d:2a:d5:b4:b8:75:59:2c:ca:3e:fb:
         d0:43:51:1c:5f:27:61:60:25:33:2b:d1:b4:d7:43:c5:89:2b:
         db:b3:b1:9a:0e:25:a9:45:59:16:58:20:c0:a5:18:80:a6:b5:
         b1:a6:17:cc:69:e5:b4:df:d7:76:4a:14:db:fe:c5:1b:b7:4b:
         53:93:3f:51:89:88:b4:70:a1:15:12:16:e6:99:33:0a:d6:38:
         93:3f:8a:b0:9a:62:96:96:11:9b:d4:0e:97:3b:4f:3f:ad:50:
         f7:e5:db:ab:ba:e3:fe:d5:df:99:ce:d3:4c:7c:8f:84:0c:af:
         42:3a:7e:3a:69:c0:fe:66:94:9b:de:51:57:b8:e5:4a:8b:fa:
         c1:30:d1:9c:ec:76:16:53:4d:6b:5d:eb:2d:81:62:b7:cd:c7:
         0e:19:07:81:1c:90:3c:47:35:c1:db:b1:68:ae:19:d6:73:66:
         74:d8:37:57:9e:cd:94:a9:22:2e:63:3b:22:e4:7d:19:c5:d7:
         23:f2:9f:39
-----BEGIN CERTIFICATE-----
MIID9TCCAt2gAwIBAgICEAcwDQYJKoZIhvcNAQELBQAwKDESMBAGA1UEChMJTm9k
ZU9QQ1VBMRIwEAYDVQQDEwlOb2RlT1BDVUEwHhcNMTYwNDMwMTYyOTI3WhcNMTcw
NDMwMTYyOTI3WjAoMRIwEAYDVQQKEwlOb2RlT1BDVUExEjAQBgNVBAMTCU5vZGVP
UENVQTCCASIwDQYJKoZIhvcNAQEBBQADggEPADCCAQoCggEBAL+2bjUEJ0CN8PuS
zbsTAcMTe6CYsEX3BJrHOoJ3oAxC6/0Y2OtOvNCrIgFOhKEBnZnJzy0tOTkFl121
UBqpp31VLlBIExds0aBKFV1NXFeeGi7VnaVlelrbXaxBXtIIaocHifEe9wSdIf1w
YshH79zveUw2qDs2tWUcMV9rQZMTDU5cO3FjGDpD/ecLF3K84mtmWGs0jE3hSDrz
taaz05v17PPPE+PW6uNEYkKtG+QfcJfIstpyCLcdrnCud5g5tbmyuN8eftkLgT/F
WJ1+kfVdoLaLjt327A9njOrd8M23nKAR1KqnE2skq6P2lAbeqS1BuvH9Z4RXMyeS
pZ/g2bkCAwEAAaOCAScwggEjMAwGA1UdEwEB/wQCMAAwHQYDVR0OBBYEFHabk4J2
OvXx9JywLpw+jQLektUZMFEGA1UdIwRKMEiAFHabk4J2OvXx9JywLpw+jQLektUZ
oSykKjAoMRIwEAYDVQQKEwlOb2RlT1BDVUExEjAQBgNVBAMTCU5vZGVPUENVQYIC
EAcwQQYDVR0RBDowOIYfdXJuOlVidW50dURlc2s6Tm9kZU9QQ1VBLVNlcnZlcoIJ
bG9jYWxob3N0ggpVYnVudHVEZXNrMCwGCWCGSAGG+EIBDQQfFh1PcGVuU1NMIEdl
bmVyYXRlZCBDZXJ0aWZpY2F0ZTAOBgNVHQ8BAf8EBAMCAvwwIAYDVR0lAQH/BBYw
FAYIKwYBBQUHAwEGCCsGAQUFBwMCMA0GCSqGSIb3DQEBCwUAA4IBAQBjGS0ArzAo
0JhCGmy6OyonP51ThEmJO9VuCbt4NcKTrxHuF6sM9x9cIxIpKTwbX1mI6YHJj91o
rikNwBJ8TSrVtLh1WSzKPvvQQ1EcXydhYCUzK9G010PFiSvbs7GaDiWpRVkWWCDA
pRiAprWxphfMaeW039d2ShTb/sUbt0tTkz9RiYi0cKEVEhbmmTMK1jiTP4qwmmKW
lhGb1A6XO08/rVD35duruuP+1d+ZztNMfI+EDK9COn46acD+ZpSb3lFXuOVKi/rB
MNGc7HYWU01rXestgWK3zccOGQeBHJA8RzXB27ForhnWc2Z02DdXns2UqSIuYzsi
5H0Zxdcj8p85
-----END CERTIFICATE-----
