Certificate:
    Data:
        Version: 3 (0x2)
        Serial Number: 4097 (0x1001)
    Signature Algorithm: sha256WithRSAEncryption
        Issuer: C=FR, ST=IDF, L=Paris, O=Fake CA for Test, CN=NodeOPCUA
        Validity
            Not Before: Apr 30 16:29:27 2016 GMT
            Not After : Apr 30 16:29:27 2017 GMT
        Subject: O=NodeOPCUA, CN=NodeOPCUA
        Subject Public Key Info:
            Public Key Algorithm: rsaEncryption
                Public-Key: (2048 bit)
                Modulus:
                    00:e5:53:6b:21:0d:fc:3b:41:62:7a:4c:fd:de:5e:
                    93:9e:db:4c:4a:c8:e4:86:a3:55:9a:3f:f1:a0:00:
                    a1:83:32:df:fa:e9:33:b8:2b:ac:bb:1f:90:38:ec:
                    ad:95:31:bd:2b:17:59:20:fd:0c:4f:fe:45:60:6d:
                    31:11:83:95:c4:77:07:e7:ca:54:4b:a9:5d:55:75:
                    14:25:06:b5:84:c4:5b:c6:31:0f:39:76:09:14:01:
                    03:37:11:17:71:7e:52:f2:3a:63:b1:26:e9:75:a1:
                    84:c9:b3:20:6e:8f:d8:90:62:30:c8:31:28:11:23:
                    d2:cf:98:a5:21:8f:b8:16:d9:b1:67:26:b5:49:72:
                    99:cf:43:c1:2b:2c:6f:95:5a:0d:32:00:3f:c0:e2:
                    d0:77:9e:ca:c5:12:35:4d:9b:9a:16:18:07:9c:0c:
                    02:89:12:37:59:10:01:9b:e6:2a:ae:67:2a:4f:36:
                    62:5f:26:97:04:73:52:b7:e3:36:fd:bf:7f:59:6e:
                    b9:d0:0e:f5:df:52:a2:bf:f9:ba:73:26:4f:6d:f3:
                    b2:6c:12:52:9f:68:5e:1b:23:1a:00:88:45:74:4f:
                    fa:f1:f8:1b:8c:37:7d:87:d7:0e:04:21:23:08:ad:
                    ec:f1:d1:74:14:e1:ea:41:e3:31:ff:00:30:f1:9a:
                    d9:bd
                Exponent: 65537 (0x10001)
        X509v3 extensions:
            X509v3 Basic Constraints: critical
                CA:FALSE
            X509v3 Subject Key Identifier: 
                B0:75:A7:4D:44:56:E5:69:34:1C:B6:69:4E:AF:DD:B3:2A:26:49:E5
            X509v3 Authority Key Identifier: 
                keyid:B2:C7:5C:1B:ED:CC:74:25:36:DB:3E:E6:CD:72:5B:1E:58:69:8E:E7
                DirName:/C=FR/ST=IDF/L=Paris/O=Fake CA for Test/CN=NodeOPCUA
                serial:EE:B8:18:2F:F3:D5:3C:97

            X509v3 Subject Alternative Name: 
                URI:urn:UbuntuDesk:NodeOPCUA-Client, DNS:localhost, DNS:UbuntuDesk
            Netscape Comment: 
                OpenSSL Generated Certificate
            X509v3 Key Usage: critical
                Digital Signature, Non Repudiation, Key Encipherment, Data Encipherment, Key Agreement, Certificate Sign
            X509v3 Extended Key Usage: critical
                TLS Web Server Authentication, TLS Web Client Authentication
    Signature Algorithm: sha256WithRSAEncryption
         2b:b2:78:08:79:e4:f3:60:54:26:7b:4a:66:3d:70:66:28:9a:
         dd:c4:5d:1b:f3:51:bf:38:f7:44:5a:be:20:ea:e3:f2:4b:63:
         ad:0d:4b:5a:db:73:39:79:b9:03:de:52:34:1e:92:0c:f5:16:
         9f:b8:d6:17:3f:89:44:4d:5f:9e:a6:d4:da:4c:66:89:32:ea:
         bb:b5:a2:ed:e4:a4:11:42:32:be:cf:b5:9e:47:79:13:7a:45:
         77:d8:b1:53:93:58:13:cc:d7:72:3a:ab:ad:41:47:7a:c5:9b:
         ad:1f:01:34:ad:e0:05:7e:92:8d:90:71:8c:8e:c4:7f:d3:4d:
         56:cb:4b:2d:08:be:f5:3d:ab:ac:de:ae:a2:7f:85:07:8e:91:
         87:b9:58:7e:0b:5e:1c:d7:89:d1:bd:f3:9d:66:94:83:6f:5c:
         8c:0a:4a:5b:22:73:5d:ae:94:ee:07:79:fc:f4:d2:bc:20:1e:
         95:1a:d6:0d:02:4a:40:b0:3d:d9:1d:99:2a:96:67:05:9d:2f:
         9d:05:0e:72:62:4c:10:74:34:d7:3f:31:de:c7:a8:cc:e2:b3:
         8d:b6:22:02:04:d5:1c:31:16:10:37:25:54:8b:10:e4:0e:3d:
         87:45:93:b6:20:ff:58:be:56:68:d6:03:28:a2:74:5d:82:1a:
         da:86:2f:37
-----BEGIN CERTIFICATE-----
MIIEYzCCA0ugAwIBAgICEAEwDQYJKoZIhvcNAQELBQAwWjELMAkGA1UEBhMCRlIx
DDAKBgNVBAgTA0lERjEOMAwGA1UEBxMFUGFyaXMxGTAXBgNVBAoTEEZha2UgQ0Eg
Zm9yIFRlc3QxEjAQBgNVBAMTCU5vZGVPUENVQTAeFw0xNjA0MzAxNjI5MjdaFw0x
NzA0MzAxNjI5MjdaMCgxEjAQBgNVBAoTCU5vZGVPUENVQTESMBAGA1UEAxMJTm9k
ZU9QQ1VBMIIBIjANBgkqhkiG9w0BAQEFAAOCAQ8AMIIBCgKCAQEA5VNrIQ38O0Fi
ekz93l6TnttMSsjkhqNVmj/xoAChgzLf+ukzuCusux+QOOytlTG9KxdZIP0MT/5F
YG0xEYOVxHcH58pUS6ldVXUUJQa1hMRbxjEPOXYJFAEDNxEXcX5S8jpjsSbpdaGE
ybMgbo/YkGIwyDEoESPSz5ilIY+4FtmxZya1SXKZz0PBKyxvlVoNMgA/wOLQd57K
xRI1TZuaFhgHnAwCiRI3WRABm+YqrmcqTzZiXyaXBHNSt+M2/b9/WW650A7131Ki
v/m6cyZPbfOybBJSn2heGyMaAIhFdE/68fgbjDd9h9cOBCEjCK3s8dF0FOHqQeMx
/wAw8ZrZvQIDAQABo4IBYzCCAV8wDAYDVR0TAQH/BAIwADAdBgNVHQ4EFgQUsHWn
TURW5Wk0HLZpTq/dsyomSeUwgYwGA1UdIwSBhDCBgYAUssdcG+3MdCU22z7mzXJb
HlhpjuehXqRcMFoxCzAJBgNVBAYTAkZSMQwwCgYDVQQIEwNJREYxDjAMBgNVBAcT
BVBhcmlzMRkwFwYDVQQKExBGYWtlIENBIGZvciBUZXN0MRIwEAYDVQQDEwlOb2Rl
T1BDVUGCCQDuuBgv89U8lzBBBgNVHREEOjA4hh91cm46VWJ1bnR1RGVzazpOb2Rl
T1BDVUEtQ2xpZW50gglsb2NhbGhvc3SCClVidW50dURlc2swLAYJYIZIAYb4QgEN
BB8WHU9wZW5TU0wgR2VuZXJhdGVkIENlcnRpZmljYXRlMA4GA1UdDwEB/wQEAwIC
/DAgBgNVHSUBAf8EFjAUBggrBgEFBQcDAQYIKwYBBQUHAwIwDQYJKoZIhvcNAQEL
BQADggEBACuyeAh55PNgVCZ7SmY9cGYomt3EXRvzUb8490RaviDq4/JLY60NS1rb
czl5uQPeUjQekgz1Fp+41hc/iURNX56m1NpMZoky6ru1ou3kpBFCMr7PtZ5HeRN6
RXfYsVOTWBPM13I6q61BR3rFm60fATSt4AV+ko2QcYyOxH/TTVbLSy0IvvU9q6ze
rqJ/hQeOkYe5WH4LXhzXidG9851mlINvXIwKSlsic12ulO4Hefz00rwgHpUa1g0C
SkCwPdkdmSqWZwWdL50FDnJiTBB0NNc/Md7HqMzis422IgIE1RwxFhA3JVSLEOQO
PYdFk7Yg/1i+VmjWAyiidF2CGtqGLzc=
-----END CERTIFICATE-----
