Certificate:
    Data:
        Version: 3 (0x2)
        Serial Number: 4100 (0x1004)
    Signature Algorithm: sha256WithRSAEncryption
        Issuer: C=FR, ST=IDF, L=Paris, O=Fake CA for Test, CN=NodeOPCUA
        Validity
            Not Before: Apr 30 16:29:27 2016 GMT
            Not After : Apr 30 16:29:27 2017 GMT
        Subject: O=NodeOPCUA, CN=NodeOPCUA
        Subject Public Key Info:
            Public Key Algorithm: rsaEncryption
                Public-Key: (1024 bit)
                Modulus:
                    00:bf:f3:bc:a5:4d:6a:fb:67:8b:b2:82:2d:33:42:
                    eb:32:5d:20:19:d7:3a:93:53:ce:99:35:6a:05:90:
                    ee:ba:3e:11:fc:30:4c:e4:c5:d8:7d:4d:a6:f1:a1:
                    7f:98:87:c8:24:88:8e:4c:34:7b:1a:14:b7:42:85:
                    cb:0e:72:94:46:35:3e:14:f5:e4:87:92:a9:65:f5:
                    df:29:e7:de:11:8c:4c:fe:63:55:83:94:c8:e9:5f:
                    d1:a2:f3:a2:b5:e6:50:8a:05:9c:34:2c:b9:2a:c0:
                    d7:d6:dc:35:6e:b0:87:9b:b6:6f:72:19:80:17:59:
                    9d:f8:97:91:9a:b9:a9:a3:07
                Exponent: 65537 (0x10001)
        X509v3 extensions:
            X509v3 Basic Constraints: critical
                CA:FALSE
            X509v3 Subject Key Identifier: 
                FD:E6:BA:20:C5:78:61:50:E1:A6:3A:D7:90:ED:C2:3A:41:24:48:84
            X509v3 Authority Key Identifier: 
                keyid:B2:C7:5C:1B:ED:CC:74:25:36:DB:3E:E6:CD:72:5B:1E:58:69:8E:E7
                DirName:/C=FR/ST=IDF/L=Paris/O=Fake CA for Test/CN=NodeOPCUA
                serial:EE:B8:18:2F:F3:D5:3C:97

            X509v3 Subject Alternative Name: 
                URI:urn:UbuntuDesk:NodeOPCUA-Server, DNS:localhost, DNS:UbuntuDesk
            Netscape Comment: 
                OpenSSL Generated Certificate
            X509v3 Key Usage: critical
                Digital Signature, Non Repudiation, Key Encipherment, Data Encipherment, Key Agreement, Certificate Sign
            X509v3 Extended Key Usage: critical
                TLS Web Server Authentication, TLS Web Client Authentication
    Signature Algorithm: sha256WithRSAEncryption
         9b:5c:2a:0a:b8:ad:e6:62:e3:b8:14:2c:ad:e0:29:87:9d:ba:
         15:d8:65:37:b4:30:10:54:6a:41:7e:05:c1:92:6f:43:d7:17:
         07:5f:d1:43:32:ed:b5:8d:7e:bf:58:1e:93:dc:7b:06:68:05:
         f3:be:cc:b0:ec:18:a2:f4:8d:d8:43:08:d2:c8:50:40:0a:9a:
         c6:45:81:64:0a:b3:4c:8c:cc:ac:d7:e5:45:61:69:be:a3:05:
         7f:21:8c:93:62:a7:8d:fc:f5:85:3e:ef:94:c7:df:d9:03:fa:
         74:83:b3:b1:c6:f3:a6:15:2a:b0:1d:f2:31:2f:29:34:d4:80:
         db:9b:67:1f:00:0d:19:8f:90:3e:b7:ed:87:3f:25:5a:af:1f:
         bd:01:ed:d7:5b:8e:ec:26:e5:bc:a5:32:21:e7:28:b9:12:81:
         b6:ba:c1:ed:31:5e:8e:c5:39:52:84:1a:ae:da:02:ef:33:e5:
         08:ec:5b:c9:0a:2a:97:d4:02:54:ac:12:6b:1b:7c:90:7c:f5:
         64:39:3d:9d:c6:a6:c2:0d:88:7a:75:a0:08:52:83:09:a1:dc:
         c2:d7:29:30:b2:74:64:77:a6:ad:2b:f4:9a:4d:49:92:21:63:
         93:9a:11:c8:d4:58:63:1f:51:64:02:d6:3d:19:29:a1:aa:40:
         45:77:7a:5c
-----BEGIN CERTIFICATE-----
MIID3zCCAsegAwIBAgICEAQwDQYJKoZIhvcNAQELBQAwWjELMAkGA1UEBhMCRlIx
DDAKBgNVBAgTA0lERjEOMAwGA1UEBxMFUGFyaXMxGTAXBgNVBAoTEEZha2UgQ0Eg
Zm9yIFRlc3QxEjAQBgNVBAMTCU5vZGVPUENVQTAeFw0xNjA0MzAxNjI5MjdaFw0x
NzA0MzAxNjI5MjdaMCgxEjAQBgNVBAoTCU5vZGVPUENVQTESMBAGA1UEAxMJTm9k
ZU9QQ1VBMIGfMA0GCSqGSIb3DQEBAQUAA4GNADCBiQKBgQC/87ylTWr7Z4uygi0z
QusyXSAZ1zqTU86ZNWoFkO66PhH8MEzkxdh9TabxoX+Yh8gkiI5MNHsaFLdChcsO
cpRGNT4U9eSHkqll9d8p594RjEz+Y1WDlMjpX9Gi86K15lCKBZw0LLkqwNfW3DVu
sIebtm9yGYAXWZ34l5GauamjBwIDAQABo4IBYzCCAV8wDAYDVR0TAQH/BAIwADAd
BgNVHQ4EFgQU/ea6IMV4YVDhpjrXkO3COkEkSIQwgYwGA1UdIwSBhDCBgYAUssdc
G+3MdCU22z7mzXJbHlhpjuehXqRcMFoxCzAJBgNVBAYTAkZSMQwwCgYDVQQIEwNJ
REYxDjAMBgNVBAcTBVBhcmlzMRkwFwYDVQQKExBGYWtlIENBIGZvciBUZXN0MRIw
EAYDVQQDEwlOb2RlT1BDVUGCCQDuuBgv89U8lzBBBgNVHREEOjA4hh91cm46VWJ1
bnR1RGVzazpOb2RlT1BDVUEtU2VydmVygglsb2NhbGhvc3SCClVidW50dURlc2sw
LAYJYIZIAYb4QgENBB8WHU9wZW5TU0wgR2VuZXJhdGVkIENlcnRpZmljYXRlMA4G
A1UdDwEB/wQEAwIC/DAgBgNVHSUBAf8EFjAUBggrBgEFBQcDAQYIKwYBBQUHAwIw
DQYJKoZIhvcNAQELBQADggEBAJtcKgq4reZi47gULK3gKYeduhXYZTe0MBBUakF+
BcGSb0PXFwdf0UMy7bWNfr9YHpPcewZoBfO+zLDsGKL0jdhDCNLIUEAKmsZFgWQK
s0yMzKzX5UVhab6jBX8hjJNip4389YU+75TH39kD+nSDs7HG86YVKrAd8jEvKTTU
gNubZx8ADRmPkD637Yc/JVqvH70B7ddbjuwm5bylMiHnKLkSgba6we0xXo7FOVKE
Gq7aAu8z5QjsW8kKKpfUAlSsEmsbfJB89WQ5PZ3GpsINiHp1oAhSgwmh3MLXKTCy
dGR3pq0r9JpNSZIhY5OaEcjUWGMfUWQC1j0ZKaGqQEV3elw=
-----END CERTIFICATE-----
