Certificate:
    Data:
        Version: 3 (0x2)
        Serial Number: 4102 (0x1006)
    Signature Algorithm: sha256WithRSAEncryption
        Issuer: O=NodeOPCUA, CN=NodeOPCUA
        Validity
            Not Before: Apr 30 16:29:27 2016 GMT
            Not After : Apr 30 16:29:27 2017 GMT
        Subject: O=NodeOPCUA, CN=NodeOPCUA
        Subject Public Key Info:
            Public Key Algorithm: rsaEncryption
                Public-Key: (1024 bit)
                Modulus:
                    00:bf:f3:bc:a5:4d:6a:fb:67:8b:b2:82:2d:33:42:
                    eb:32:5d:20:19:d7:3a:93:53:ce:99:35:6a:05:90:
                    ee:ba:3e:11:fc:30:4c:e4:c5:d8:7d:4d:a6:f1:a1:
                    7f:98:87:c8:24:88:8e:4c:34:7b:1a:14:b7:42:85:
                    cb:0e:72:94:46:35:3e:14:f5:e4:87:92:a9:65:f5:
                    df:29:e7:de:11:8c:4c:fe:63:55:83:94:c8:e9:5f:
                    d1:a2:f3:a2:b5:e6:50:8a:05:9c:34:2c:b9:2a:c0:
                    d7:d6:dc:35:6e:b0:87:9b:b6:6f:72:19:80:17:59:
                    9d:f8:97:91:9a:b9:a9:a3:07
                Exponent: 65537 (0x10001)
        X509v3 extensions:
            X509v3 Basic Constraints: critical
                CA:FALSE
            X509v3 Subject Key Identifier: 
                FD:E6:BA:20:C5:78:61:50:E1:A6:3A:D7:90:ED:C2:3A:41:24:48:84
            X509v3 Authority Key Identifier: 
                keyid:FD:E6:BA:20:C5:78:61:50:E1:A6:3A:D7:90:ED:C2:3A:41:24:48:84
                DirName:/O=NodeOPCUA/CN=NodeOPCUA
                serial:10:06

            X509v3 Subject Alternative Name: 
                URI:urn:UbuntuDesk:NodeOPCUA-Server, DNS:localhost, DNS:UbuntuDesk
            Netscape Comment: 
                OpenSSL Generated Certificate
            X509v3 Key Usage: critical
                Digital Signature, Non Repudiation, Key Encipherment, Data Encipherment, Key Agreement, Certificate Sign
            X509v3 Extended Key Usage: critical
                TLS Web Server Authentication, TLS Web Client Authentication
    Signature Algorithm: sha256WithRSAEncryption
         0d:48:f8:32:e5:63:0d:dd:fb:68:42:17:63:44:8a:91:38:ca:
         38:d3:bb:0c:eb:b0:44:6a:f7:44:74:b0:ba:f0:25:4a:26:f6:
         90:34:ea:dc:8c:32:56:7c:14:78:af:0a:99:cf:70:78:f5:a7:
         54:48:24:0a:67:85:9f:77:93:eb:44:75:22:9e:d2:d9:69:de:
         fc:b1:bb:3b:0f:24:48:92:0d:3e:cf:c6:19:84:9a:42:9d:65:
         95:f4:d6:ef:d8:cf:1b:ce:54:2f:0e:4b:de:c2:7b:b3:26:27:
         6a:89:cd:3c:13:0f:cd:45:b1:46:58:b0:83:24:16:37:b9:12:
         0b:f1
-----BEGIN CERTIFICATE-----
MIIC8DCCAlmgAwIBAgICEAYwDQYJKoZIhvcNAQELBQAwKDESMBAGA1UEChMJTm9k
ZU9QQ1VBMRIwEAYDVQQDEwlOb2RlT1BDVUEwHhcNMTYwNDMwMTYyOTI3WhcNMTcw
NDMwMTYyOTI3WjAoMRIwEAYDVQQKEwlOb2RlT1BDVUExEjAQBgNVBAMTCU5vZGVP
UENVQTCBnzANBgkqhkiG9w0BAQEFAAOBjQAwgYkCgYEAv/O8pU1q+2eLsoItM0Lr
Ml0gGdc6k1POmTVqBZDuuj4R/DBM5MXYfU2m8aF/mIfIJIiOTDR7GhS3QoXLDnKU
RjU+FPXkh5KpZfXfKefeEYxM/mNVg5TI6V/RovOiteZQigWcNCy5KsDX1tw1brCH
m7ZvchmAF1md+JeRmrmpowcCAwEAAaOCAScwggEjMAwGA1UdEwEB/wQCMAAwHQYD
VR0OBBYEFP3muiDFeGFQ4aY615DtwjpBJEiEMFEGA1UdIwRKMEiAFP3muiDFeGFQ
4aY615DtwjpBJEiEoSykKjAoMRIwEAYDVQQKEwlOb2RlT1BDVUExEjAQBgNVBAMT
CU5vZGVPUENVQYICEAYwQQYDVR0RBDowOIYfdXJuOlVidW50dURlc2s6Tm9kZU9Q
Q1VBLVNlcnZlcoIJbG9jYWxob3N0ggpVYnVudHVEZXNrMCwGCWCGSAGG+EIBDQQf
Fh1PcGVuU1NMIEdlbmVyYXRlZCBDZXJ0aWZpY2F0ZTAOBgNVHQ8BAf8EBAMCAvww
IAYDVR0lAQH/BBYwFAYIKwYBBQUHAwEGCCsGAQUFBwMCMA0GCSqGSIb3DQEBCwUA
A4GBAA1I+DLlYw3d+2hCF2NEipE4yjjTuwzrsERq90R0sLrwJUom9pA06tyMMlZ8
FHivCpnPcHj1p1RIJApnhZ93k+tEdSKe0tlp3vyxuzsPJEiSDT7PxhmEmkKdZZX0
1u/YzxvOVC8OS97Ce7MmJ2qJzTwTD81FsUZYsIMkFje5Egvx
-----END CERTIFICATE-----
