Certificate:
    Data:
        Version: 3 (0x2)
        Serial Number: 4107 (0x100b)
    Signature Algorithm: sha256WithRSAEncryption
        Issuer: O=NodeOPCUA, CN=NodeOPCUA
        Validity
            Not Before: Apr 30 16:29:27 2016 GMT
            Not After : Apr 30 16:29:27 2017 GMT
        Subject: O=NodeOPCUA, CN=NodeOPCUA
        Subject Public Key Info:
            Public Key Algorithm: rsaEncryption
                Public-Key: (2048 bit)
                Modulus:
                    00:af:d2:55:79:60:e3:e8:61:a6:bb:8b:e8:22:8b:
                    9e:c0:31:45:75:85:db:de:d1:c9:e9:da:12:ed:d9:
                    59:0b:78:74:53:48:75:ee:61:a0:e8:39:94:83:6a:
                    db:30:5d:4b:74:2c:a0:c4:c9:59:e8:50:58:11:46:
                    2e:a2:b2:3c:b9:43:cd:80:b4:15:cd:2d:59:9b:0b:
                    54:1c:dd:74:aa:1b:f5:b7:d4:8c:e4:5c:54:45:2f:
                    5f:e1:16:9b:f2:fc:67:b4:aa:b3:f1:ac:1c:aa:ad:
                    3f:8b:15:13:c8:05:90:1e:6f:56:0d:1c:c7:e4:ee:
                    2c:5c:a0:5c:c0:85:16:67:86:c5:f2:f1:3c:a7:75:
                    a0:bf:cb:08:6f:21:91:e4:32:36:26:95:fc:e8:b6:
                    aa:39:ce:17:57:d2:91:48:d7:08:40:c8:47:8c:03:
                    53:eb:65:20:d0:f1:ee:09:a7:e4:23:93:7f:5b:27:
                    77:ac:f1:25:bf:20:d6:ac:df:5b:c1:82:f4:bb:c4:
                    36:39:b9:ac:6e:6b:5a:da:3e:f8:6b:c7:b1:c0:2f:
                    c1:aa:57:4f:e2:b7:fd:3b:5b:ec:43:67:f0:bb:aa:
                    94:74:42:b0:5c:7d:d3:02:c1:b2:3b:e4:74:c1:4d:
                    69:99:bb:3e:44:38:97:62:47:8f:ee:07:bf:3b:48:
                    61:31
                Exponent: 65537 (0x10001)
        X509v3 extensions:
            X509v3 Basic Constraints: critical
                CA:FALSE
            X509v3 Subject Key Identifier: 
                38:16:0B:9A:5E:E3:45:F2:83:D7:74:81:B3:F8:5F:72:2B:27:CC:8E
            X509v3 Authority Key Identifier: 
                keyid:38:16:0B:9A:5E:E3:45:F2:83:D7:74:81:B3:F8:5F:72:2B:27:CC:8E
                DirName:/O=NodeOPCUA/CN=NodeOPCUA
                serial:10:0B

            X509v3 Subject Alternative Name: 
                URI:urn:UbuntuDesk:NodeOPCUA-DiscoveryServer, DNS:localhost, DNS:UbuntuDesk
            Netscape Comment: 
                OpenSSL Generated Certificate
            X509v3 Key Usage: critical
                Digital Signature, Non Repudiation, Key Encipherment, Data Encipherment, Key Agreement, Certificate Sign
            X509v3 Extended Key Usage: critical
                TLS Web Server Authentication, TLS Web Client Authentication
    Signature Algorithm: sha256WithRSAEncryption
         96:1b:7d:a6:68:b4:3e:b9:2e:3d:13:a1:3a:fa:b9:52:6f:22:
         dd:cb:af:f7:bf:16:aa:65:3b:d9:b6:8e:20:04:af:10:5a:36:
         d6:f0:97:9c:2c:a9:d6:82:66:f4:ec:76:9e:7f:cc:ca:42:b8:
         4c:77:74:d8:83:1e:67:10:7e:2c:a0:25:80:ca:c2:bf:d6:ba:
         b6:44:27:67:93:83:e1:29:4a:a1:ec:83:9f:03:92:f0:02:cc:
         03:94:fa:d5:aa:4a:22:18:02:ac:23:fe:94:e3:37:df:fd:a5:
         1d:a8:9e:e4:01:bd:88:6b:c6:d8:9c:eb:2f:0d:0f:06:23:4c:
         d0:60:a3:d6:e6:9e:28:89:45:10:e5:20:21:13:8b:86:3e:ea:
         d7:a7:97:e8:65:0c:30:31:9d:08:b3:3c:24:32:f3:18:b2:13:
         e3:28:6c:dd:da:0d:59:53:27:7f:89:ad:49:64:9b:a7:8e:f9:
         b8:dd:05:78:bb:d3:65:0c:44:d6:5e:54:16:55:1c:82:83:27:
         16:4d:53:cc:a5:a8:f7:e7:a7:f5:d5:08:77:49:14:ec:5b:56:
         f7:2b:48:40:64:66:0f:9f:e9:cd:08:61:cf:4c:02:13:cb:2f:
         93:80:9c:05:bc:d6:89:3e:3a:01:a4:e9:88:a6:f5:fd:8b:e7:
         85:1d:21:8a
-----BEGIN CERTIFICATE-----
MIID/jCCAuagAwIBAgICEAswDQYJKoZIhvcNAQELBQAwKDESMBAGA1UEChMJTm9k
ZU9QQ1VBMRIwEAYDVQQDEwlOb2RlT1BDVUEwHhcNMTYwNDMwMTYyOTI3WhcNMTcw
NDMwMTYyOTI3WjAoMRIwEAYDVQQKEwlOb2RlT1BDVUExEjAQBgNVBAMTCU5vZGVP
UENVQTCCASIwDQYJKoZIhvcNAQEBBQADggEPADCCAQoCggEBAK/SVXlg4+hhpruL
6CKLnsAxRXWF297RyenaEu3ZWQt4dFNIde5hoOg5lINq2zBdS3QsoMTJWehQWBFG
LqKyPLlDzYC0Fc0tWZsLVBzddKob9bfUjORcVEUvX+EWm/L8Z7Sqs/GsHKqtP4sV
E8gFkB5vVg0cx+TuLFygXMCFFmeGxfLxPKd1oL/LCG8hkeQyNiaV/Oi2qjnOF1fS
kUjXCEDIR4wDU+tlINDx7gmn5COTf1snd6zxJb8g1qzfW8GC9LvENjm5rG5rWto+
+GvHscAvwapXT+K3/Ttb7ENn8LuqlHRCsFx90wLBsjvkdMFNaZm7PkQ4l2JHj+4H
vztIYTECAwEAAaOCATAwggEsMAwGA1UdEwEB/wQCMAAwHQYDVR0OBBYEFDgWC5pe
40Xyg9d0gbP4X3IrJ8yOMFEGA1UdIwRKMEiAFDgWC5pe40Xyg9d0gbP4X3IrJ8yO
oSykKjAoMRIwEAYDVQQKEwlOb2RlT1BDVUExEjAQBgNVBAMTCU5vZGVPUENVQYIC
EAswSgYDVR0RBEMwQYYodXJuOlVidW50dURlc2s6Tm9kZU9QQ1VBLURpc2NvdmVy
eVNlcnZlcoIJbG9jYWxob3N0ggpVYnVudHVEZXNrMCwGCWCGSAGG+EIBDQQfFh1P
cGVuU1NMIEdlbmVyYXRlZCBDZXJ0aWZpY2F0ZTAOBgNVHQ8BAf8EBAMCAvwwIAYD
VR0lAQH/BBYwFAYIKwYBBQUHAwEGCCsGAQUFBwMCMA0GCSqGSIb3DQEBCwUAA4IB
AQCWG32maLQ+uS49E6E6+rlSbyLdy6/3vxaqZTvZto4gBK8QWjbW8JecLKnWgmb0
7Haef8zKQrhMd3TYgx5nEH4soCWAysK/1rq2RCdnk4PhKUqh7IOfA5LwAswDlPrV
qkoiGAKsI/6U4zff/aUdqJ7kAb2Ia8bYnOsvDQ8GI0zQYKPW5p4oiUUQ5SAhE4uG
PurXp5foZQwwMZ0IszwkMvMYshPjKGzd2g1ZUyd/ia1JZJunjvm43QV4u9NlDETW
XlQWVRyCgycWTVPMpaj356f11Qh3SRTsW1b3K0hAZGYPn+nNCGHPTAITyy+TgJwF
vNaJPjoBpOmIpvX9i+eFHSGK
-----END CERTIFICATE-----
