Certificate Request:
    Data:
        Version: 0 (0x0)
        Subject: C=FR, ST=IDF, L=Paris, O=Fake CA for Test, CN=NodeOPCUA
        Subject Public Key Info:
            Public Key Algorithm: rsaEncryption
                Public-Key: (2048 bit)
                Modulus:
                    00:bf:24:5f:11:c8:54:d3:a3:f2:71:35:06:1c:e7:
                    5e:91:60:f9:2e:97:1e:6e:c1:d7:ec:42:68:6a:66:
                    5b:a5:e5:0f:bd:7e:e5:d3:7f:91:0c:26:a3:16:08:
                    25:69:ff:c2:76:b9:bf:84:2a:d2:3b:a4:82:2b:a8:
                    1b:bd:8b:83:9f:9d:db:42:39:d3:33:e1:0f:59:de:
                    89:96:93:fe:ae:fa:cb:07:8f:16:67:c6:f5:49:8b:
                    09:2e:0b:79:38:fb:d4:70:5b:cf:20:60:e3:eb:f0:
                    52:f7:7a:61:64:ce:04:08:44:60:bc:b7:91:0c:49:
                    db:9d:9f:6a:60:2f:a0:b3:de:e5:82:14:43:57:ad:
                    dd:cf:f1:a0:7e:80:fb:c3:5a:20:07:2e:a6:55:5e:
                    88:57:e7:97:a6:07:c6:83:67:64:30:5e:3e:6d:5f:
                    26:6d:de:52:e7:c8:a7:d1:06:69:18:17:62:de:8e:
                    de:ad:a8:c4:86:13:ae:69:2d:90:4b:8c:e9:bb:3f:
                    19:72:0c:69:c5:91:89:d1:62:c6:c2:bf:fe:87:6f:
                    8e:e3:22:af:82:b0:4c:a0:aa:a5:c1:e9:f1:9d:8f:
                    88:2f:b2:f5:07:7b:07:8f:af:b8:87:2f:86:81:07:
                    48:4f:05:27:22:fc:76:f4:48:1a:d1:d7:22:b1:db:
                    a8:f5
                Exponent: 65537 (0x10001)
        Attributes:
        Requested Extensions:
            X509v3 Basic Constraints: critical
                CA:FALSE
            X509v3 Key Usage: 
                Digital Signature, Non Repudiation, Key Encipherment, Data Encipherment, Key Agreement
            X509v3 Subject Alternative Name: 
                URI:, DNS:, DNS:
            Netscape Comment: 
                CA Generated by Node-OPCUA Certificate utility using openssl
    Signature Algorithm: sha256WithRSAEncryption
         5e:dd:a6:66:91:7b:52:dd:c5:a1:17:2c:15:f2:af:91:20:b1:
         3f:63:af:21:44:80:a3:3a:a5:7b:95:a5:b7:d4:f7:e2:f3:d8:
         97:e0:49:d9:10:5c:26:56:2f:21:c9:ae:54:a9:c4:eb:58:2f:
         03:a5:9a:42:3b:da:dd:82:70:80:9d:cc:2b:9c:eb:bd:39:16:
         89:98:0d:36:05:05:7a:7e:a2:99:3b:38:37:71:c8:e7:27:ac:
         8d:05:74:1b:de:e0:ab:0c:47:a0:ac:f2:25:a3:50:03:0f:a5:
         18:22:5f:75:06:9f:38:4b:0b:ba:5c:7f:96:6c:01:e8:fa:df:
         8b:1e:64:cf:81:a8:1c:bc:b3:15:c7:3b:8d:c5:a1:b8:c7:50:
         4c:60:ed:56:3b:b8:f4:0a:2b:fc:7a:f2:62:eb:37:4f:aa:6d:
         70:f0:dc:e6:5a:ab:1d:b2:c6:94:6c:42:b3:6a:3e:21:86:9c:
         c3:5c:3d:34:9e:5b:b5:e3:df:bd:7f:a9:a9:40:bd:3d:4b:35:
         b2:77:74:9b:15:f2:3b:86:29:fe:c7:5e:0c:3e:9e:44:7b:6f:
         14:59:87:5f:dd:20:73:e9:63:09:be:6e:ea:75:55:be:c4:a4:
         69:7b:ef:a8:36:69:8e:1a:72:37:4c:6c:bf:b0:e0:73:fe:49:
         3a:5a:45:1d
-----BEGIN CERTIFICATE REQUEST-----
MIIDKzCCAhMCAQAwWjELMAkGA1UEBhMCRlIxDDAKBgNVBAgTA0lERjEOMAwGA1UE
BxMFUGFyaXMxGTAXBgNVBAoTEEZha2UgQ0EgZm9yIFRlc3QxEjAQBgNVBAMTCU5v
ZGVPUENVQTCCASIwDQYJKoZIhvcNAQEBBQADggEPADCCAQoCggEBAL8kXxHIVNOj
8nE1BhznXpFg+S6XHm7B1+xCaGpmW6XlD71+5dN/kQwmoxYIJWn/wna5v4Qq0juk
giuoG72Lg5+d20I50zPhD1neiZaT/q76ywePFmfG9UmLCS4LeTj71HBbzyBg4+vw
Uvd6YWTOBAhEYLy3kQxJ252famAvoLPe5YIUQ1et3c/xoH6A+8NaIAcuplVeiFfn
l6YHxoNnZDBePm1fJm3eUufIp9EGaRgXYt6O3q2oxIYTrmktkEuM6bs/GXIMacWR
idFixsK//odvjuMir4KwTKCqpcHp8Z2PiC+y9Qd7B4+vuIcvhoEHSE8FJyL8dvRI
GtHXIrHbqPUCAwEAAaCBizCBiAYJKoZIhvcNAQkOMXsweTAMBgNVHRMBAf8EAjAA
MAsGA1UdDwQEAwID+DAPBgNVHREECDAGhgCCAIIAMEsGCWCGSAGG+EIBDQQ+FjxD
QSBHZW5lcmF0ZWQgYnkgTm9kZS1PUENVQSBDZXJ0aWZpY2F0ZSB1dGlsaXR5IHVz
aW5nIG9wZW5zc2wwDQYJKoZIhvcNAQELBQADggEBAF7dpmaRe1LdxaEXLBXyr5Eg
sT9jryFEgKM6pXuVpbfU9+Lz2JfgSdkQXCZWLyHJrlSpxOtYLwOlmkI72t2CcICd
zCuc6705FomYDTYFBXp+opk7ODdxyOcnrI0FdBve4KsMR6Cs8iWjUAMPpRgiX3UG
nzhLC7pcf5ZsAej634seZM+BqBy8sxXHO43FobjHUExg7VY7uPQKK/x68mLrN0+q
bXDw3OZaqx2yxpRsQrNqPiGGnMNcPTSeW7Xj371/qalAvT1LNbJ3dJsV8juGKf7H
Xgw+nkR7bxRZh1/dIHPpYwm+bup1Vb7EpGl776g2aY4acjdMbL+w4HP+STpaRR0=
-----END CERTIFICATE REQUEST-----
